Thursday, May 18, 10:43:43, 2023

                    * Generalplus u'nSP Linker version 1.14.13.18
                    -------------------------------------------

Global Symbol Name                                Global Value     Global Filename
***********************************************************************************************************************************************************************************************************************************************************************************************************
_Test_Assembly                                           205621    "D:\Prj_GPCE3400\ZMM001A(EN)_MMMMMMM\soft\V46_asV34\Debug\main.obj"
_Switch_Mode                                             5F3       "D:\Prj_GPCE3400\ZMM001A(EN)_MMMMMMM\soft\V46_asV34\Debug\main.obj"
_Switch_Mode_Pre                                         5F4       "D:\Prj_GPCE3400\ZMM001A(EN)_MMMMMMM\soft\V46_asV34\Debug\main.obj"
_IO_Buffer                                               5F5       "D:\Prj_GPCE3400\ZMM001A(EN)_MMMMMMM\soft\V46_asV34\Debug\main.obj"
_R_DebounceCnt                                           5F6       "D:\Prj_GPCE3400\ZMM001A(EN)_MMMMMMM\soft\V46_asV34\Debug\main.obj"
_TimeCnt                                                 5F7       "D:\Prj_GPCE3400\ZMM001A(EN)_MMMMMMM\soft\V46_asV34\Debug\main.obj"
_TimeCnt_Testingmode                                     5F8       "D:\Prj_GPCE3400\ZMM001A(EN)_MMMMMMM\soft\V46_asV34\Debug\main.obj"
_gTemp                                                   5F9       "D:\Prj_GPCE3400\ZMM001A(EN)_MMMMMMM\soft\V46_asV34\Debug\main.obj"
_gVolume                                                 5FA       "D:\Prj_GPCE3400\ZMM001A(EN)_MMMMMMM\soft\V46_asV34\Debug\main.obj"
_Key_Debounce                                            5FB       "D:\Prj_GPCE3400\ZMM001A(EN)_MMMMMMM\soft\V46_asV34\Debug\main.obj"
_main                                                    205767    "D:\Prj_GPCE3400\ZMM001A(EN)_MMMMMMM\soft\V46_asV34\Debug\main.obj"
_BREAK                                                   204C17    "D:\Prj_GPCE3400\ZMM001A(EN)_MMMMMMM\soft\V46_asV34\Debug\isr.obj"
_FIQ                                                     204C1B    "D:\Prj_GPCE3400\ZMM001A(EN)_MMMMMMM\soft\V46_asV34\Debug\isr.obj"
_IRQ0                                                    204C45    "D:\Prj_GPCE3400\ZMM001A(EN)_MMMMMMM\soft\V46_asV34\Debug\isr.obj"
_IRQ1                                                    204C49    "D:\Prj_GPCE3400\ZMM001A(EN)_MMMMMMM\soft\V46_asV34\Debug\isr.obj"
_IRQ2                                                    204C51    "D:\Prj_GPCE3400\ZMM001A(EN)_MMMMMMM\soft\V46_asV34\Debug\isr.obj"
_IRQ3                                                    204C59    "D:\Prj_GPCE3400\ZMM001A(EN)_MMMMMMM\soft\V46_asV34\Debug\isr.obj"
_IRQ4                                                    204C5D    "D:\Prj_GPCE3400\ZMM001A(EN)_MMMMMMM\soft\V46_asV34\Debug\isr.obj"
_IRQ5                                                    204C64    "D:\Prj_GPCE3400\ZMM001A(EN)_MMMMMMM\soft\V46_asV34\Debug\isr.obj"
_IRQ6                                                    204C68    "D:\Prj_GPCE3400\ZMM001A(EN)_MMMMMMM\soft\V46_asV34\Debug\isr.obj"
_IRQ7                                                    204CA1    "D:\Prj_GPCE3400\ZMM001A(EN)_MMMMMMM\soft\V46_asV34\Debug\isr.obj"
_RES_Table                                               204800    "D:\Prj_GPCE3400\ZMM001A(EN)_MMMMMMM\soft\V46_asV34\Debug\Resource.obj"
_SPI_Resources_Folder_Table                              204800    "D:\Prj_GPCE3400\ZMM001A(EN)_MMMMMMM\soft\V46_asV34\Debug\Resource.obj"
_RES_ROM_ZMM_V14_PRO_BIN_SA                              204800    "D:\Prj_GPCE3400\ZMM001A(EN)_MMMMMMM\soft\V46_asV34\Debug\Resource.obj"
_RES_ROM_ZMM_V14_PRO_BIN_EA                              204802    "D:\Prj_GPCE3400\ZMM001A(EN)_MMMMMMM\soft\V46_asV34\Debug\Resource.obj"
T_SACM_A1800_SpeechTable                                 204804    "D:\Prj_GPCE3400\ZMM001A(EN)_MMMMMMM\soft\V46_asV34\Debug\Resource.obj"
T_SACM_A3400_SpeechTable                                 204804    "D:\Prj_GPCE3400\ZMM001A(EN)_MMMMMMM\soft\V46_asV34\Debug\Resource.obj"
T_SACM_MS02_InstrumentSet                                204804    "D:\Prj_GPCE3400\ZMM001A(EN)_MMMMMMM\soft\V46_asV34\Debug\Resource.obj"
T_SACM_MS02_MIDITable                                    204804    "D:\Prj_GPCE3400\ZMM001A(EN)_MMMMMMM\soft\V46_asV34\Debug\Resource.obj"
__sn_init_table                                          2034DB    "Linker internal symbol"
__sn_sp_val                                              BFF       "Linker internal symbol"
D_A1800_IO_EVENT_NUM                                     2018A0    "D:\Prj_GPCE3400\ZMM001A(EN)_MMMMMMM\soft\V46_asV34\Debug\SACM_A1800_User.obj"
D_A1800_SW_PWM_LEVEL                                     2018A1    "D:\Prj_GPCE3400\ZMM001A(EN)_MMMMMMM\soft\V46_asV34\Debug\SACM_A1800_User.obj"
T_A1800_IO_Event                                         2018A2    "D:\Prj_GPCE3400\ZMM001A(EN)_MMMMMMM\soft\V46_asV34\Debug\SACM_A1800_User.obj"
_USER_A1800_SetStartAddr                                 20514E    "D:\Prj_GPCE3400\ZMM001A(EN)_MMMMMMM\soft\V46_asV34\Debug\SACM_A1800_User.obj"
_USER_A1800_SetStartAddr_Con                             205174    "D:\Prj_GPCE3400\ZMM001A(EN)_MMMMMMM\soft\V46_asV34\Debug\SACM_A1800_User.obj"
F_USER_A1800_SetStartAddr_Con                            205177    "D:\Prj_GPCE3400\ZMM001A(EN)_MMMMMMM\soft\V46_asV34\Debug\SACM_A1800_User.obj"
F_USER_A1800_GetData                                     2050ED    "D:\Prj_GPCE3400\ZMM001A(EN)_MMMMMMM\soft\V46_asV34\Debug\SACM_A1800_User.obj"
_USER_A1800_Volume                                       205141    "D:\Prj_GPCE3400\ZMM001A(EN)_MMMMMMM\soft\V46_asV34\Debug\SACM_A1800_User.obj"
F_USER_A1800_Volume                                      205144    "D:\Prj_GPCE3400\ZMM001A(EN)_MMMMMMM\soft\V46_asV34\Debug\SACM_A1800_User.obj"
F_SACM_A1800_SendDAC1                                    2050C0    "D:\Prj_GPCE3400\ZMM001A(EN)_MMMMMMM\soft\V46_asV34\Debug\SACM_A1800_User.obj"
F_SACM_A1800_SendDAC2                                    2050D2    "D:\Prj_GPCE3400\ZMM001A(EN)_MMMMMMM\soft\V46_asV34\Debug\SACM_A1800_User.obj"
F_SACM_A1800_StartPlay                                   2050D5    "D:\Prj_GPCE3400\ZMM001A(EN)_MMMMMMM\soft\V46_asV34\Debug\SACM_A1800_User.obj"
F_SACM_A1800_EndPlay                                     2050D6    "D:\Prj_GPCE3400\ZMM001A(EN)_MMMMMMM\soft\V46_asV34\Debug\SACM_A1800_User.obj"
F_SACM_A1800_Init_                                       204849    "D:\Prj_GPCE3400\ZMM001A(EN)_MMMMMMM\soft\V46_asV34\Debug\SACM_A1800_User.obj"
F_SACM_A1800_DAC_Timer_X2                                204868    "D:\Prj_GPCE3400\ZMM001A(EN)_MMMMMMM\soft\V46_asV34\Debug\SACM_A1800_User.obj"
F_SACM_A1800_GetStartAddr_Con                            2050E4    "D:\Prj_GPCE3400\ZMM001A(EN)_MMMMMMM\soft\V46_asV34\Debug\SACM_A1800_User.obj"
F_A1800_USER_GetEvtData                                  205115    "D:\Prj_GPCE3400\ZMM001A(EN)_MMMMMMM\soft\V46_asV34\Debug\SACM_A1800_User.obj"
F_A1800_USER_IoEvtStart                                  205118    "D:\Prj_GPCE3400\ZMM001A(EN)_MMMMMMM\soft\V46_asV34\Debug\SACM_A1800_User.obj"
F_A1800_USER_IoEvtEnd                                    205129    "D:\Prj_GPCE3400\ZMM001A(EN)_MMMMMMM\soft\V46_asV34\Debug\SACM_A1800_User.obj"
F_A1800_USER_EvtProcess                                  20513A    "D:\Prj_GPCE3400\ZMM001A(EN)_MMMMMMM\soft\V46_asV34\Debug\SACM_A1800_User.obj"
F_A1800_USER_SoundProcess                                20513B    "D:\Prj_GPCE3400\ZMM001A(EN)_MMMMMMM\soft\V46_asV34\Debug\SACM_A1800_User.obj"
R_AUDIO_CH1_Data                                         5B5       "D:\Prj_GPCE3400\ZMM001A(EN)_MMMMMMM\soft\V46_asV34\Debug\SACM_A1800_User.obj"
_System_ServiceLoop                                      204F36    "D:\Prj_GPCE3400\ZMM001A(EN)_MMMMMMM\soft\V46_asV34\Debug\system.obj"
F_System_ServiceLoop                                     204F36    "D:\Prj_GPCE3400\ZMM001A(EN)_MMMMMMM\soft\V46_asV34\Debug\system.obj"
_WatchdogClear                                           204F31    "D:\Prj_GPCE3400\ZMM001A(EN)_MMMMMMM\soft\V46_asV34\Debug\system.obj"
F_WatchdogClear                                          204F31    "D:\Prj_GPCE3400\ZMM001A(EN)_MMMMMMM\soft\V46_asV34\Debug\system.obj"
_SP_RampUpDAC1                                           204F75    "D:\Prj_GPCE3400\ZMM001A(EN)_MMMMMMM\soft\V46_asV34\Debug\system.obj"
F_SP_RampUpDAC1                                          204F75    "D:\Prj_GPCE3400\ZMM001A(EN)_MMMMMMM\soft\V46_asV34\Debug\system.obj"
_SP_RampDnDAC1                                           204F43    "D:\Prj_GPCE3400\ZMM001A(EN)_MMMMMMM\soft\V46_asV34\Debug\system.obj"
F_SP_RampDnDAC1                                          204F43    "D:\Prj_GPCE3400\ZMM001A(EN)_MMMMMMM\soft\V46_asV34\Debug\system.obj"
_SP_RampUpDAC2                                           204F8E    "D:\Prj_GPCE3400\ZMM001A(EN)_MMMMMMM\soft\V46_asV34\Debug\system.obj"
F_SP_RampUpDAC2                                          204F8E    "D:\Prj_GPCE3400\ZMM001A(EN)_MMMMMMM\soft\V46_asV34\Debug\system.obj"
_SP_RampDnDAC2                                           204F5C    "D:\Prj_GPCE3400\ZMM001A(EN)_MMMMMMM\soft\V46_asV34\Debug\system.obj"
F_SP_RampDnDAC2                                          204F5C    "D:\Prj_GPCE3400\ZMM001A(EN)_MMMMMMM\soft\V46_asV34\Debug\system.obj"
_SoftwareReset                                           204F39    "D:\Prj_GPCE3400\ZMM001A(EN)_MMMMMMM\soft\V46_asV34\Debug\system.obj"
F_SoftwareReset                                          204F39    "D:\Prj_GPCE3400\ZMM001A(EN)_MMMMMMM\soft\V46_asV34\Debug\system.obj"
_Sys_clock_init_Only                                     204EC7    "D:\Prj_GPCE3400\ZMM001A(EN)_MMMMMMM\soft\V46_asV34\Debug\system.obj"
_Sys_clock_init                                          204ED7    "D:\Prj_GPCE3400\ZMM001A(EN)_MMMMMMM\soft\V46_asV34\Debug\system.obj"
_Time_init                                               204F0C    "D:\Prj_GPCE3400\ZMM001A(EN)_MMMMMMM\soft\V46_asV34\Debug\system.obj"
_Time_init_TestMode                                      204F22    "D:\Prj_GPCE3400\ZMM001A(EN)_MMMMMMM\soft\V46_asV34\Debug\system.obj"
_SP_RampUpDAC1_Other                                     204FA7    "D:\Prj_GPCE3400\ZMM001A(EN)_MMMMMMM\soft\V46_asV34\Debug\system.obj"
F_DAC1RampDnISR                                          204FD5    "D:\Prj_GPCE3400\ZMM001A(EN)_MMMMMMM\soft\V46_asV34\Debug\system.obj"
_A1800Stop                                               204FE6    "D:\Prj_GPCE3400\ZMM001A(EN)_MMMMMMM\soft\V46_asV34\Debug\system.obj"
F_SW_MuteControl                                         205000    "D:\Prj_GPCE3400\ZMM001A(EN)_MMMMMMM\soft\V46_asV34\Debug\system.obj"
__sn_ram_end                                             6F3       "Linker internal symbol"
_SPI_ReadAWord                                           2049FB    "D:\Prj_GPCE3400\ZMM001A(EN)_MMMMMMM\soft\V46_asV34\Debug\flash.obj"
F_SPI_ReadAWord                                          2049FF    "D:\Prj_GPCE3400\ZMM001A(EN)_MMMMMMM\soft\V46_asV34\Debug\flash.obj"
_SPI_ReadNWords_LH                                       204A56    "D:\Prj_GPCE3400\ZMM001A(EN)_MMMMMMM\soft\V46_asV34\Debug\flash.obj"
F_SPI_ReadNWords_LH                                      204A5C    "D:\Prj_GPCE3400\ZMM001A(EN)_MMMMMMM\soft\V46_asV34\Debug\flash.obj"
_SPI_ReadAWord_Big                                       204A17    "D:\Prj_GPCE3400\ZMM001A(EN)_MMMMMMM\soft\V46_asV34\Debug\flash.obj"
_SPI_ReadAByte                                           204A3A    "D:\Prj_GPCE3400\ZMM001A(EN)_MMMMMMM\soft\V46_asV34\Debug\flash.obj"
_mul2                                                    204804    "D:\Prj_GPCE3400\ZMM001A(EN)_MMMMMMM\soft\V46_asV34\Debug\Calc.obj"
_Low16                                                   204823    "D:\Prj_GPCE3400\ZMM001A(EN)_MMMMMMM\soft\V46_asV34\Debug\Calc.obj"
_High16                                                  20482E    "D:\Prj_GPCE3400\ZMM001A(EN)_MMMMMMM\soft\V46_asV34\Debug\Calc.obj"
_SP_SwitchChannel                                        204D84    "D:\Prj_GPCE3400\ZMM001A(EN)_MMMMMMM\soft\V46_asV34\Debug\System_2.obj"
F_SP_SwitchChannel                                       204D84    "D:\Prj_GPCE3400\ZMM001A(EN)_MMMMMMM\soft\V46_asV34\Debug\System_2.obj"
_DAC1_RampDnFlag                                         5B9       "D:\Prj_GPCE3400\ZMM001A(EN)_MMMMMMM\soft\V46_asV34\Debug\System_2.obj"
_Sleep                                                   204E49    "D:\Prj_GPCE3400\ZMM001A(EN)_MMMMMMM\soft\V46_asV34\Debug\System_2.obj"
_OtherSph_Random_Value                                   5BA       "D:\Prj_GPCE3400\ZMM001A(EN)_MMMMMMM\soft\V46_asV34\Debug\System_2.obj"
_IO_init                                                 204D85    "D:\Prj_GPCE3400\ZMM001A(EN)_MMMMMMM\soft\V46_asV34\Debug\System_2.obj"
_IO_init_Wakeup                                          204DAB    "D:\Prj_GPCE3400\ZMM001A(EN)_MMMMMMM\soft\V46_asV34\Debug\System_2.obj"
F_Switch_Check                                           204DC4    "D:\Prj_GPCE3400\ZMM001A(EN)_MMMMMMM\soft\V46_asV34\Debug\System_2.obj"
_Sleep_Io                                                204E05    "D:\Prj_GPCE3400\ZMM001A(EN)_MMMMMMM\soft\V46_asV34\Debug\System_2.obj"
_Set_Sleep_IO                                            204E29    "D:\Prj_GPCE3400\ZMM001A(EN)_MMMMMMM\soft\V46_asV34\Debug\System_2.obj"
_delaytest                                               204E98    "D:\Prj_GPCE3400\ZMM001A(EN)_MMMMMMM\soft\V46_asV34\Debug\System_2.obj"
_Light_all_off                                           20486F    "D:\Prj_GPCE3400\ZMM001A(EN)_MMMMMMM\soft\V46_asV34\Debug\LED_Drive.obj"
_Led_Blink                                               204876    "D:\Prj_GPCE3400\ZMM001A(EN)_MMMMMMM\soft\V46_asV34\Debug\LED_Drive.obj"
_Get_Question_Category                                   205CAC    "D:\Prj_GPCE3400\ZMM001A(EN)_MMMMMMM\soft\V46_asV34\Debug\Algorithm.obj"
_Sleep_IO_Temp                                           5FC       "D:\Prj_GPCE3400\ZMM001A(EN)_MMMMMMM\soft\V46_asV34\Debug\Algorithm.obj"
_Wakeup_IO_Temp                                          5FD       "D:\Prj_GPCE3400\ZMM001A(EN)_MMMMMMM\soft\V46_asV34\Debug\Algorithm.obj"
_Wakeup_IO_Temp_debouce                                  5FE       "D:\Prj_GPCE3400\ZMM001A(EN)_MMMMMMM\soft\V46_asV34\Debug\Algorithm.obj"
_TimeCnt_Key                                             5FF       "D:\Prj_GPCE3400\ZMM001A(EN)_MMMMMMM\soft\V46_asV34\Debug\Algorithm.obj"
_T_Countdowncnt                                          600       "D:\Prj_GPCE3400\ZMM001A(EN)_MMMMMMM\soft\V46_asV34\Debug\Algorithm.obj"
_Restart                                                 601       "D:\Prj_GPCE3400\ZMM001A(EN)_MMMMMMM\soft\V46_asV34\Debug\Algorithm.obj"
_Cn                                                      602       "D:\Prj_GPCE3400\ZMM001A(EN)_MMMMMMM\soft\V46_asV34\Debug\Algorithm.obj"
_Registerd_Num                                           603       "D:\Prj_GPCE3400\ZMM001A(EN)_MMMMMMM\soft\V46_asV34\Debug\Algorithm.obj"
_LastCategory_Series                                     604       "D:\Prj_GPCE3400\ZMM001A(EN)_MMMMMMM\soft\V46_asV34\Debug\Algorithm.obj"
_Round                                                   668       "D:\Prj_GPCE3400\ZMM001A(EN)_MMMMMMM\soft\V46_asV34\Debug\Algorithm.obj"
_Player_Activing_Cnt                                     669       "D:\Prj_GPCE3400\ZMM001A(EN)_MMMMMMM\soft\V46_asV34\Debug\Algorithm.obj"
_Player_Activing_Cnt_Pre                                 66A       "D:\Prj_GPCE3400\ZMM001A(EN)_MMMMMMM\soft\V46_asV34\Debug\Algorithm.obj"
_LQA                                                     66B       "D:\Prj_GPCE3400\ZMM001A(EN)_MMMMMMM\soft\V46_asV34\Debug\Algorithm.obj"
_gQuestionIdx                                            66C       "D:\Prj_GPCE3400\ZMM001A(EN)_MMMMMMM\soft\V46_asV34\Debug\Algorithm.obj"
_gQuestionIdx_1                                          66D       "D:\Prj_GPCE3400\ZMM001A(EN)_MMMMMMM\soft\V46_asV34\Debug\Algorithm.obj"
_Player_Point                                            66E       "D:\Prj_GPCE3400\ZMM001A(EN)_MMMMMMM\soft\V46_asV34\Debug\Algorithm.obj"
_Rounds                                                  678       "D:\Prj_GPCE3400\ZMM001A(EN)_MMMMMMM\soft\V46_asV34\Debug\Algorithm.obj"
_Pingame                                                 682       "D:\Prj_GPCE3400\ZMM001A(EN)_MMMMMMM\soft\V46_asV34\Debug\Algorithm.obj"
_Pselected                                               684       "D:\Prj_GPCE3400\ZMM001A(EN)_MMMMMMM\soft\V46_asV34\Debug\Algorithm.obj"
_R_QuestionNum                                           686       "D:\Prj_GPCE3400\ZMM001A(EN)_MMMMMMM\soft\V46_asV34\Debug\Algorithm.obj"
_timeout_t                                               687       "D:\Prj_GPCE3400\ZMM001A(EN)_MMMMMMM\soft\V46_asV34\Debug\Algorithm.obj"
_Timeout_cnt                                             688       "D:\Prj_GPCE3400\ZMM001A(EN)_MMMMMMM\soft\V46_asV34\Debug\Algorithm.obj"
_Key_activeflag                                          689       "D:\Prj_GPCE3400\ZMM001A(EN)_MMMMMMM\soft\V46_asV34\Debug\Algorithm.obj"
_TwoKey_temp                                             68A       "D:\Prj_GPCE3400\ZMM001A(EN)_MMMMMMM\soft\V46_asV34\Debug\Algorithm.obj"
_Registered_Play_Status                                  68B       "D:\Prj_GPCE3400\ZMM001A(EN)_MMMMMMM\soft\V46_asV34\Debug\Algorithm.obj"
_Key_Event                                               68C       "D:\Prj_GPCE3400\ZMM001A(EN)_MMMMMMM\soft\V46_asV34\Debug\Algorithm.obj"
_BlinkFlag_Data                                          68D       "D:\Prj_GPCE3400\ZMM001A(EN)_MMMMMMM\soft\V46_asV34\Debug\Algorithm.obj"
_Eventflag                                               68E       "D:\Prj_GPCE3400\ZMM001A(EN)_MMMMMMM\soft\V46_asV34\Debug\Algorithm.obj"
_Ssn                                                     68F       "D:\Prj_GPCE3400\ZMM001A(EN)_MMMMMMM\soft\V46_asV34\Debug\Algorithm.obj"
_Key_TrueFlase_Buffer                                    690       "D:\Prj_GPCE3400\ZMM001A(EN)_MMMMMMM\soft\V46_asV34\Debug\Algorithm.obj"
_Last2Cat                                                691       "D:\Prj_GPCE3400\ZMM001A(EN)_MMMMMMM\soft\V46_asV34\Debug\Algorithm.obj"
_PlayScoresFlag                                          697       "D:\Prj_GPCE3400\ZMM001A(EN)_MMMMMMM\soft\V46_asV34\Debug\Algorithm.obj"
_Sleepflag                                               698       "D:\Prj_GPCE3400\ZMM001A(EN)_MMMMMMM\soft\V46_asV34\Debug\Algorithm.obj"
_Cheater_SeletQu_Flag                                    699       "D:\Prj_GPCE3400\ZMM001A(EN)_MMMMMMM\soft\V46_asV34\Debug\Algorithm.obj"
_VOL1Flag                                                69A       "D:\Prj_GPCE3400\ZMM001A(EN)_MMMMMMM\soft\V46_asV34\Debug\Algorithm.obj"
_Speed_BonusFlag                                         69B       "D:\Prj_GPCE3400\ZMM001A(EN)_MMMMMMM\soft\V46_asV34\Debug\Algorithm.obj"
_Time_Countdown                                          69C       "D:\Prj_GPCE3400\ZMM001A(EN)_MMMMMMM\soft\V46_asV34\Debug\Algorithm.obj"
_firstFlag_Bit                                           69D       "D:\Prj_GPCE3400\ZMM001A(EN)_MMMMMMM\soft\V46_asV34\Debug\Algorithm.obj"
_Countdownflag                                           69E       "D:\Prj_GPCE3400\ZMM001A(EN)_MMMMMMM\soft\V46_asV34\Debug\Algorithm.obj"
_LFXFlag_Data                                            69F       "D:\Prj_GPCE3400\ZMM001A(EN)_MMMMMMM\soft\V46_asV34\Debug\Algorithm.obj"
_LFX_Data_Cnt                                            6A0       "D:\Prj_GPCE3400\ZMM001A(EN)_MMMMMMM\soft\V46_asV34\Debug\Algorithm.obj"
_NextCnt                                                 6A1       "D:\Prj_GPCE3400\ZMM001A(EN)_MMMMMMM\soft\V46_asV34\Debug\Algorithm.obj"
_TooLate_Cnt                                             6A2       "D:\Prj_GPCE3400\ZMM001A(EN)_MMMMMMM\soft\V46_asV34\Debug\Algorithm.obj"
_TooLatesolo_Cnt                                         6A3       "D:\Prj_GPCE3400\ZMM001A(EN)_MMMMMMM\soft\V46_asV34\Debug\Algorithm.obj"
_Rec                                                     6A4       "D:\Prj_GPCE3400\ZMM001A(EN)_MMMMMMM\soft\V46_asV34\Debug\Algorithm.obj"
_R_E                                                     6A7       "D:\Prj_GPCE3400\ZMM001A(EN)_MMMMMMM\soft\V46_asV34\Debug\Algorithm.obj"
_LastE                                                   6A8       "D:\Prj_GPCE3400\ZMM001A(EN)_MMMMMMM\soft\V46_asV34\Debug\Algorithm.obj"
_NumRounds                                               6A9       "D:\Prj_GPCE3400\ZMM001A(EN)_MMMMMMM\soft\V46_asV34\Debug\Algorithm.obj"
_CurrentRound                                            6AA       "D:\Prj_GPCE3400\ZMM001A(EN)_MMMMMMM\soft\V46_asV34\Debug\Algorithm.obj"
_SinceLastE                                              6AB       "D:\Prj_GPCE3400\ZMM001A(EN)_MMMMMMM\soft\V46_asV34\Debug\Algorithm.obj"
_Tie                                                     6AC       "D:\Prj_GPCE3400\ZMM001A(EN)_MMMMMMM\soft\V46_asV34\Debug\Algorithm.obj"
_End20flag                                               6AD       "D:\Prj_GPCE3400\ZMM001A(EN)_MMMMMMM\soft\V46_asV34\Debug\Algorithm.obj"
_Answerflag                                              6AE       "D:\Prj_GPCE3400\ZMM001A(EN)_MMMMMMM\soft\V46_asV34\Debug\Algorithm.obj"
_Last2Catcnt                                             6AF       "D:\Prj_GPCE3400\ZMM001A(EN)_MMMMMMM\soft\V46_asV34\Debug\Algorithm.obj"
_Timeout_cnt_En                                          6B0       "D:\Prj_GPCE3400\ZMM001A(EN)_MMMMMMM\soft\V46_asV34\Debug\Algorithm.obj"
_randomflag                                              6B1       "D:\Prj_GPCE3400\ZMM001A(EN)_MMMMMMM\soft\V46_asV34\Debug\Algorithm.obj"
_EventP                                                  6B2       "D:\Prj_GPCE3400\ZMM001A(EN)_MMMMMMM\soft\V46_asV34\Debug\Algorithm.obj"
_Event_F                                                 6B3       "D:\Prj_GPCE3400\ZMM001A(EN)_MMMMMMM\soft\V46_asV34\Debug\Algorithm.obj"
_LFX_Data                                                6CB       "D:\Prj_GPCE3400\ZMM001A(EN)_MMMMMMM\soft\V46_asV34\Debug\Algorithm.obj"
_Led_Data_Play                                           20190A    "D:\Prj_GPCE3400\ZMM001A(EN)_MMMMMMM\soft\V46_asV34\Debug\Algorithm.obj"
_BitMap                                                  20190F    "D:\Prj_GPCE3400\ZMM001A(EN)_MMMMMMM\soft\V46_asV34\Debug\Algorithm.obj"
_Get_Question_Sound                                      205CC1    "D:\Prj_GPCE3400\ZMM001A(EN)_MMMMMMM\soft\V46_asV34\Debug\Algorithm.obj"
_Get_Question_Mode                                       205CD7    "D:\Prj_GPCE3400\ZMM001A(EN)_MMMMMMM\soft\V46_asV34\Debug\Algorithm.obj"
_GetQuality                                              205CDB    "D:\Prj_GPCE3400\ZMM001A(EN)_MMMMMMM\soft\V46_asV34\Debug\Algorithm.obj"
_delay_time                                              205CF0    "D:\Prj_GPCE3400\ZMM001A(EN)_MMMMMMM\soft\V46_asV34\Debug\Algorithm.obj"
_Demo                                                    205D06    "D:\Prj_GPCE3400\ZMM001A(EN)_MMMMMMM\soft\V46_asV34\Debug\Algorithm.obj"
_Get_LQA                                                 205E10    "D:\Prj_GPCE3400\ZMM001A(EN)_MMMMMMM\soft\V46_asV34\Debug\Algorithm.obj"
_Get_LQ                                                  205E42    "D:\Prj_GPCE3400\ZMM001A(EN)_MMMMMMM\soft\V46_asV34\Debug\Algorithm.obj"
_Get_Length_Pingame                                      205E74    "D:\Prj_GPCE3400\ZMM001A(EN)_MMMMMMM\soft\V46_asV34\Debug\Algorithm.obj"
_Select_Pingamerandom_4                                  205EA6    "D:\Prj_GPCE3400\ZMM001A(EN)_MMMMMMM\soft\V46_asV34\Debug\Algorithm.obj"
_Select_Pingamerandom                                    205EE1    "D:\Prj_GPCE3400\ZMM001A(EN)_MMMMMMM\soft\V46_asV34\Debug\Algorithm.obj"
_Select_NotinPingamerandom                               206009    "D:\Prj_GPCE3400\ZMM001A(EN)_MMMMMMM\soft\V46_asV34\Debug\Algorithm.obj"
_Supress_Question_CategoryLast2C                         20606E    "D:\Prj_GPCE3400\ZMM001A(EN)_MMMMMMM\soft\V46_asV34\Debug\Algorithm.obj"
_Supress_Question_CategoryLast8C                         2060F5    "D:\Prj_GPCE3400\ZMM001A(EN)_MMMMMMM\soft\V46_asV34\Debug\Algorithm.obj"
_Supress_Question_CategoryLast4C                         206193    "D:\Prj_GPCE3400\ZMM001A(EN)_MMMMMMM\soft\V46_asV34\Debug\Algorithm.obj"
_Supress_Question_Category                               206239    "D:\Prj_GPCE3400\ZMM001A(EN)_MMMMMMM\soft\V46_asV34\Debug\Algorithm.obj"
_Supress_Question_BigThanQuality                         20629B    "D:\Prj_GPCE3400\ZMM001A(EN)_MMMMMMM\soft\V46_asV34\Debug\Algorithm.obj"
_Check_Question_Quality                                  2062FD    "D:\Prj_GPCE3400\ZMM001A(EN)_MMMMMMM\soft\V46_asV34\Debug\Algorithm.obj"
_Get_LQA_Categorys                                       20633A    "D:\Prj_GPCE3400\ZMM001A(EN)_MMMMMMM\soft\V46_asV34\Debug\Algorithm.obj"
_Supress_QuestionAsked_Category                          206375    "D:\Prj_GPCE3400\ZMM001A(EN)_MMMMMMM\soft\V46_asV34\Debug\Algorithm.obj"
_Supress_QuestionAsked_FullCateg                         2063D5    "D:\Prj_GPCE3400\ZMM001A(EN)_MMMMMMM\soft\V46_asV34\Debug\Algorithm.obj"
_Select_Questionrandom_4                                 20643C    "D:\Prj_GPCE3400\ZMM001A(EN)_MMMMMMM\soft\V46_asV34\Debug\Algorithm.obj"
_Select_Question_ModeStatus_Othe                         206477    "D:\Prj_GPCE3400\ZMM001A(EN)_MMMMMMM\soft\V46_asV34\Debug\Algorithm.obj"
_GameTimeout                                             2064FF    "D:\Prj_GPCE3400\ZMM001A(EN)_MMMMMMM\soft\V46_asV34\Debug\Algorithm.obj"
_Get_Registered_Player_Num                               206545    "D:\Prj_GPCE3400\ZMM001A(EN)_MMMMMMM\soft\V46_asV34\Debug\Algorithm.obj"
_Get_Firstcnt_From_Play                                  206566    "D:\Prj_GPCE3400\ZMM001A(EN)_MMMMMMM\soft\V46_asV34\Debug\Algorithm.obj"
_Get_FirstBit_From_Play                                  206586    "D:\Prj_GPCE3400\ZMM001A(EN)_MMMMMMM\soft\V46_asV34\Debug\Algorithm.obj"
_Select_Registered_Player_Random                         2065AE    "D:\Prj_GPCE3400\ZMM001A(EN)_MMMMMMM\soft\V46_asV34\Debug\Algorithm.obj"
_Save_Question_CategoryMemory                            2065D8    "D:\Prj_GPCE3400\ZMM001A(EN)_MMMMMMM\soft\V46_asV34\Debug\Algorithm.obj"
_Get_Num_CategoryMemory                                  20660A    "D:\Prj_GPCE3400\ZMM001A(EN)_MMMMMMM\soft\V46_asV34\Debug\Algorithm.obj"
_Get_Num_Bigscore                                        20662B    "D:\Prj_GPCE3400\ZMM001A(EN)_MMMMMMM\soft\V46_asV34\Debug\Algorithm.obj"
_Get_All_SameNum                                         206655    "D:\Prj_GPCE3400\ZMM001A(EN)_MMMMMMM\soft\V46_asV34\Debug\Algorithm.obj"
_Add_SomePlayer_Point                                    20667D    "D:\Prj_GPCE3400\ZMM001A(EN)_MMMMMMM\soft\V46_asV34\Debug\Algorithm.obj"
_Add_ALL_InactivePlayer_Point                            2066AD    "D:\Prj_GPCE3400\ZMM001A(EN)_MMMMMMM\soft\V46_asV34\Debug\Algorithm.obj"
_PlayScores                                              2066DF    "D:\Prj_GPCE3400\ZMM001A(EN)_MMMMMMM\soft\V46_asV34\Debug\Algorithm.obj"
_Play_Serieplayer                                        20670C    "D:\Prj_GPCE3400\ZMM001A(EN)_MMMMMMM\soft\V46_asV34\Debug\Algorithm.obj"
_Play_Serieplayer16bit                                   206741    "D:\Prj_GPCE3400\ZMM001A(EN)_MMMMMMM\soft\V46_asV34\Debug\Algorithm.obj"
_Sub_QuestionAsked                                       206767    "D:\Prj_GPCE3400\ZMM001A(EN)_MMMMMMM\soft\V46_asV34\Debug\Algorithm.obj"
_Reset_Pselected                                         2067BE    "D:\Prj_GPCE3400\ZMM001A(EN)_MMMMMMM\soft\V46_asV34\Debug\Algorithm.obj"
_Rest_LQ_LQA                                             2067D7    "D:\Prj_GPCE3400\ZMM001A(EN)_MMMMMMM\soft\V46_asV34\Debug\Algorithm.obj"
_Rest_LQA                                                206829    "D:\Prj_GPCE3400\ZMM001A(EN)_MMMMMMM\soft\V46_asV34\Debug\Algorithm.obj"
_Rest_Question_Asked                                     20684A    "D:\Prj_GPCE3400\ZMM001A(EN)_MMMMMMM\soft\V46_asV34\Debug\Algorithm.obj"
_Check_LQA                                               20688A    "D:\Prj_GPCE3400\ZMM001A(EN)_MMMMMMM\soft\V46_asV34\Debug\Algorithm.obj"
_Read_Flash                                              206A37    "D:\Prj_GPCE3400\ZMM001A(EN)_MMMMMMM\soft\V46_asV34\Debug\Algorithm.obj"
_Save_Question_Category2Last                             206AA7    "D:\Prj_GPCE3400\ZMM001A(EN)_MMMMMMM\soft\V46_asV34\Debug\Algorithm.obj"
_Get_Key                                                 206AD0    "D:\Prj_GPCE3400\ZMM001A(EN)_MMMMMMM\soft\V46_asV34\Debug\Algorithm.obj"
_Ask_Question                                            206CB7    "D:\Prj_GPCE3400\ZMM001A(EN)_MMMMMMM\soft\V46_asV34\Debug\Algorithm.obj"
_Questions_init                                          206D29    "D:\Prj_GPCE3400\ZMM001A(EN)_MMMMMMM\soft\V46_asV34\Debug\Algorithm.obj"
_NewgameInit                                             206D4C    "D:\Prj_GPCE3400\ZMM001A(EN)_MMMMMMM\soft\V46_asV34\Debug\Algorithm.obj"
_Ram_OnInit                                              206D52    "D:\Prj_GPCE3400\ZMM001A(EN)_MMMMMMM\soft\V46_asV34\Debug\Algorithm.obj"
_Reset_Memory                                            206D95    "D:\Prj_GPCE3400\ZMM001A(EN)_MMMMMMM\soft\V46_asV34\Debug\Algorithm.obj"
_SetPingame                                              206DAF    "D:\Prj_GPCE3400\ZMM001A(EN)_MMMMMMM\soft\V46_asV34\Debug\Algorithm.obj"
_Step1                                                   206DF9    "D:\Prj_GPCE3400\ZMM001A(EN)_MMMMMMM\soft\V46_asV34\Debug\Algorithm.obj"
_Select_Sound                                            20735D    "D:\Prj_GPCE3400\ZMM001A(EN)_MMMMMMM\soft\V46_asV34\Debug\Algorithm.obj"
_Events                                                  20748D    "D:\Prj_GPCE3400\ZMM001A(EN)_MMMMMMM\soft\V46_asV34\Debug\Algorithm.obj"
_Game                                                    20764F    "D:\Prj_GPCE3400\ZMM001A(EN)_MMMMMMM\soft\V46_asV34\Debug\Algorithm.obj"
_Answer_F                                                207748    "D:\Prj_GPCE3400\ZMM001A(EN)_MMMMMMM\soft\V46_asV34\Debug\Algorithm.obj"
_PlayScoreOfwhichplay                                    207D4D    "D:\Prj_GPCE3400\ZMM001A(EN)_MMMMMMM\soft\V46_asV34\Debug\Algorithm.obj"
_End                                                     207D60    "D:\Prj_GPCE3400\ZMM001A(EN)_MMMMMMM\soft\V46_asV34\Debug\Algorithm.obj"
_Go_Rest                                                 208283    "D:\Prj_GPCE3400\ZMM001A(EN)_MMMMMMM\soft\V46_asV34\Debug\Algorithm.obj"
_Sleeping                                                2082AB    "D:\Prj_GPCE3400\ZMM001A(EN)_MMMMMMM\soft\V46_asV34\Debug\Algorithm.obj"
_QuestionStatus_LQA                                      6CF       "D:\Prj_GPCE3400\ZMM001A(EN)_MMMMMMM\soft\V46_asV34\Debug\Algorithm.obj"
_QuestionStatus_LQ                                       6DB       "D:\Prj_GPCE3400\ZMM001A(EN)_MMMMMMM\soft\V46_asV34\Debug\Algorithm.obj"
_QuestionStatus_Asked                                    6E7       "D:\Prj_GPCE3400\ZMM001A(EN)_MMMMMMM\soft\V46_asV34\Debug\Algorithm.obj"
_Set_RandomVL_Index                                      2058E8    "D:\Prj_GPCE3400\ZMM001A(EN)_MMMMMMM\soft\V46_asV34\Debug\Play_Speech.obj"
_A1800_Flag                                              5EC       "D:\Prj_GPCE3400\ZMM001A(EN)_MMMMMMM\soft\V46_asV34\Debug\Play_Speech.obj"
_TwoKeyflag                                              5ED       "D:\Prj_GPCE3400\ZMM001A(EN)_MMMMMMM\soft\V46_asV34\Debug\Play_Speech.obj"
_PauseFlag                                               5EE       "D:\Prj_GPCE3400\ZMM001A(EN)_MMMMMMM\soft\V46_asV34\Debug\Play_Speech.obj"
_DAC1_Data_Temp                                          5EF       "D:\Prj_GPCE3400\ZMM001A(EN)_MMMMMMM\soft\V46_asV34\Debug\Play_Speech.obj"
_PlayQuestionflag                                        5F0       "D:\Prj_GPCE3400\ZMM001A(EN)_MMMMMMM\soft\V46_asV34\Debug\Play_Speech.obj"
_CheaterFlag                                             5F1       "D:\Prj_GPCE3400\ZMM001A(EN)_MMMMMMM\soft\V46_asV34\Debug\Play_Speech.obj"
_sp_offset                                               5F2       "D:\Prj_GPCE3400\ZMM001A(EN)_MMMMMMM\soft\V46_asV34\Debug\Play_Speech.obj"
_PlayA1800_Other                                         205992    "D:\Prj_GPCE3400\ZMM001A(EN)_MMMMMMM\soft\V46_asV34\Debug\Play_Speech.obj"
_Volume                                                  2059F0    "D:\Prj_GPCE3400\ZMM001A(EN)_MMMMMMM\soft\V46_asV34\Debug\Play_Speech.obj"
_Pause_Process                                           205A1F    "D:\Prj_GPCE3400\ZMM001A(EN)_MMMMMMM\soft\V46_asV34\Debug\Play_Speech.obj"
_PlayA1800_ElementsInit                                  205B3E    "D:\Prj_GPCE3400\ZMM001A(EN)_MMMMMMM\soft\V46_asV34\Debug\Play_Speech.obj"
_PlayA1800_Elements                                      205BA1    "D:\Prj_GPCE3400\ZMM001A(EN)_MMMMMMM\soft\V46_asV34\Debug\Play_Speech.obj"
_Play_Seq                                                205C52    "D:\Prj_GPCE3400\ZMM001A(EN)_MMMMMMM\soft\V46_asV34\Debug\Play_Speech.obj"
_Key_Scan_ServiceLoop                                    204B20    "D:\Prj_GPCE3400\ZMM001A(EN)_MMMMMMM\soft\V46_asV34\Debug\Key_server.obj"
_Key                                                     5C5       "D:\Prj_GPCE3400\ZMM001A(EN)_MMMMMMM\soft\V46_asV34\Debug\Key_server.obj"
_Pressflag                                               5C7       "D:\Prj_GPCE3400\ZMM001A(EN)_MMMMMMM\soft\V46_asV34\Debug\Key_server.obj"
_LongPressflag                                           5C8       "D:\Prj_GPCE3400\ZMM001A(EN)_MMMMMMM\soft\V46_asV34\Debug\Key_server.obj"
_Key_Scan_Init                                           204AFE    "D:\Prj_GPCE3400\ZMM001A(EN)_MMMMMMM\soft\V46_asV34\Debug\Key_server.obj"
_Key_Scan_Init_Wakeup                                    204B0F    "D:\Prj_GPCE3400\ZMM001A(EN)_MMMMMMM\soft\V46_asV34\Debug\Key_server.obj"
_Delay_Xms_PowerOn                                       204CCB    "D:\Prj_GPCE3400\ZMM001A(EN)_MMMMMMM\soft\V46_asV34\Debug\Sleep.obj"
_GetMode                                                 204CE4    "D:\Prj_GPCE3400\ZMM001A(EN)_MMMMMMM\soft\V46_asV34\Debug\Sleep.obj"
_Goto_Sleep                                              204D66    "D:\Prj_GPCE3400\ZMM001A(EN)_MMMMMMM\soft\V46_asV34\Debug\Sleep.obj"
_CheckSum_SPIFlash                                       20498D    "D:\Prj_GPCE3400\ZMM001A(EN)_MMMMMMM\soft\V46_asV34\Debug\CheckSum_CE3400.obj"
_TestMic0                                                2049E7    "D:\Prj_GPCE3400\ZMM001A(EN)_MMMMMMM\soft\V46_asV34\Debug\CheckSum_CE3400.obj"
_Delay1xms                                               204936    "D:\Prj_GPCE3400\ZMM001A(EN)_MMMMMMM\soft\V46_asV34\Debug\TestBondingC.obj"
_Beep_Along                                              204954    "D:\Prj_GPCE3400\ZMM001A(EN)_MMMMMMM\soft\V46_asV34\Debug\TestBondingC.obj"
_BeepBeep_Along                                          204969    "D:\Prj_GPCE3400\ZMM001A(EN)_MMMMMMM\soft\V46_asV34\Debug\TestBondingC.obj"
_Init_LED                                                204B8A    "D:\Prj_GPCE3400\ZMM001A(EN)_MMMMMMM\soft\V46_asV34\Debug\LED.obj"
_LED_Cnt                                                 5E7       "D:\Prj_GPCE3400\ZMM001A(EN)_MMMMMMM\soft\V46_asV34\Debug\LED.obj"
_LED_Control                                             204BB2    "D:\Prj_GPCE3400\ZMM001A(EN)_MMMMMMM\soft\V46_asV34\Debug\LED.obj"
_Led_ON_Some                                             204BF6    "D:\Prj_GPCE3400\ZMM001A(EN)_MMMMMMM\soft\V46_asV34\Debug\LED.obj"
_Led_OFF_Some                                            204C05    "D:\Prj_GPCE3400\ZMM001A(EN)_MMMMMMM\soft\V46_asV34\Debug\LED.obj"
_AntiCrackFun                                            2048E8    "D:\Prj_GPCE3400\ZMM001A(EN)_MMMMMMM\soft\V46_asV34\Debug\AntiCrack.obj"
_T_Scr                                                   201928    "D:\Prj_GPCE3400\ZMM001A(EN)_MMMMMMM\soft\V46_asV34\Debug\AntiCrack.obj"
_T_Szjt_enc                                              201929    "D:\Prj_GPCE3400\ZMM001A(EN)_MMMMMMM\soft\V46_asV34\Debug\AntiCrack.obj"
_T_Yutong_enc                                            20192A    "D:\Prj_GPCE3400\ZMM001A(EN)_MMMMMMM\soft\V46_asV34\Debug\AntiCrack.obj"
_R_WrongICflag                                           5E8       "D:\Prj_GPCE3400\ZMM001A(EN)_MMMMMMM\soft\V46_asV34\Debug\AntiCrack.obj"
_SPI_Flash_ReadAWord                                     77        "D:\Prj_GPCE3400\ZMM001A(EN)_MMMMMMM\soft\V46_asV34\Debug\SPI_Flash_CE3.obj"
F_SPI_Flash_ReadAWord                                    7B        "D:\Prj_GPCE3400\ZMM001A(EN)_MMMMMMM\soft\V46_asV34\Debug\SPI_Flash_CE3.obj"
_SPI_Flash_ReadNWords                                    B8        "D:\Prj_GPCE3400\ZMM001A(EN)_MMMMMMM\soft\V46_asV34\Debug\SPI_Flash_CE3.obj"
F_SPI_Flash_ReadNWords                                   BF        "D:\Prj_GPCE3400\ZMM001A(EN)_MMMMMMM\soft\V46_asV34\Debug\SPI_Flash_CE3.obj"
_SPI_Flash_SendAWord                                     FF        "D:\Prj_GPCE3400\ZMM001A(EN)_MMMMMMM\soft\V46_asV34\Debug\SPI_Flash_CE3.obj"
F_SPI_Flash_SendAWord                                    104       "D:\Prj_GPCE3400\ZMM001A(EN)_MMMMMMM\soft\V46_asV34\Debug\SPI_Flash_CE3.obj"
_SPI_Flash_SendNWords                                    142       "D:\Prj_GPCE3400\ZMM001A(EN)_MMMMMMM\soft\V46_asV34\Debug\SPI_Flash_CE3.obj"
F_SPI_Flash_SendNWords                                   149       "D:\Prj_GPCE3400\ZMM001A(EN)_MMMMMMM\soft\V46_asV34\Debug\SPI_Flash_CE3.obj"
_SPI_Flash_Read_Status_Register                          199       "D:\Prj_GPCE3400\ZMM001A(EN)_MMMMMMM\soft\V46_asV34\Debug\SPI_Flash_CE3.obj"
F_SPI_Flash_Read_Status_Register                         199       "D:\Prj_GPCE3400\ZMM001A(EN)_MMMMMMM\soft\V46_asV34\Debug\SPI_Flash_CE3.obj"
_SPI_Flash_Read_Status_Reg3                              1D6       "D:\Prj_GPCE3400\ZMM001A(EN)_MMMMMMM\soft\V46_asV34\Debug\SPI_Flash_CE3.obj"
F_SPI_Flash_Read_Status_Reg3                             1D6       "D:\Prj_GPCE3400\ZMM001A(EN)_MMMMMMM\soft\V46_asV34\Debug\SPI_Flash_CE3.obj"
_SPI_Flash_Write_Status_Register                         1FC       "D:\Prj_GPCE3400\ZMM001A(EN)_MMMMMMM\soft\V46_asV34\Debug\SPI_Flash_CE3.obj"
F_SPI_Flash_Write_Status_Registe                         1FF       "D:\Prj_GPCE3400\ZMM001A(EN)_MMMMMMM\soft\V46_asV34\Debug\SPI_Flash_CE3.obj"
_SPI_Flash_Write_Status_Reg3                             250       "D:\Prj_GPCE3400\ZMM001A(EN)_MMMMMMM\soft\V46_asV34\Debug\SPI_Flash_CE3.obj"
F_SPI_Flash_Write_Status_Reg3                            253       "D:\Prj_GPCE3400\ZMM001A(EN)_MMMMMMM\soft\V46_asV34\Debug\SPI_Flash_CE3.obj"
_SPI_Flash_Read_Configuration_Re                         2EE       "D:\Prj_GPCE3400\ZMM001A(EN)_MMMMMMM\soft\V46_asV34\Debug\SPI_Flash_CE3.obj"
F_SPI_Flash_Read_Configuration_R                         2EE       "D:\Prj_GPCE3400\ZMM001A(EN)_MMMMMMM\soft\V46_asV34\Debug\SPI_Flash_CE3.obj"
_SPI_Flash_Block_Erase                                   27C       "D:\Prj_GPCE3400\ZMM001A(EN)_MMMMMMM\soft\V46_asV34\Debug\SPI_Flash_CE3.obj"
F_SPI_Flash_Block_Erase                                  27F       "D:\Prj_GPCE3400\ZMM001A(EN)_MMMMMMM\soft\V46_asV34\Debug\SPI_Flash_CE3.obj"
_SPI_Flash_Sector_Erase                                  2B6       "D:\Prj_GPCE3400\ZMM001A(EN)_MMMMMMM\soft\V46_asV34\Debug\SPI_Flash_CE3.obj"
F_SPI_Flash_Sector_Erase                                 2BA       "D:\Prj_GPCE3400\ZMM001A(EN)_MMMMMMM\soft\V46_asV34\Debug\SPI_Flash_CE3.obj"
_SPI_Flash_Read_UniqueID                                 2EE       "D:\Prj_GPCE3400\ZMM001A(EN)_MMMMMMM\soft\V46_asV34\Debug\SPI_Flash_CE3.obj"
F_SPI_Flash_Read_UniqueID                                2EE       "D:\Prj_GPCE3400\ZMM001A(EN)_MMMMMMM\soft\V46_asV34\Debug\SPI_Flash_CE3.obj"
_MoveSPIDriverToRAM                                      204AF0    "D:\Prj_GPCE3400\ZMM001A(EN)_MMMMMMM\soft\V46_asV34\Debug\SPI_Flash_CE3.obj"
F_MoveSPIDriverToRAM                                     204AF0    "D:\Prj_GPCE3400\ZMM001A(EN)_MMMMMMM\soft\V46_asV34\Debug\SPI_Flash_CE3.obj"
R_CTS_Sum                                                5CE       "D:\Prj_GPCE3400\ZMM001A(EN)_MMMMMMM\soft\V46_asV34\Debug\CTS_Sensor.obj"
R_CTS_Reference                                          5D2       "D:\Prj_GPCE3400\ZMM001A(EN)_MMMMMMM\soft\V46_asV34\Debug\CTS_Sensor.obj"
R_CTS_ReferenceL                                         5D6       "D:\Prj_GPCE3400\ZMM001A(EN)_MMMMMMM\soft\V46_asV34\Debug\CTS_Sensor.obj"
R_CTS_ScanNo                                             5DA       "D:\Prj_GPCE3400\ZMM001A(EN)_MMMMMMM\soft\V46_asV34\Debug\CTS_Sensor.obj"
R_CTS_Schmitt_H                                          5DE       "D:\Prj_GPCE3400\ZMM001A(EN)_MMMMMMM\soft\V46_asV34\Debug\CTS_Sensor.obj"
R_CTS_Schmitt_L                                          5E2       "D:\Prj_GPCE3400\ZMM001A(EN)_MMMMMMM\soft\V46_asV34\Debug\CTS_Sensor.obj"
T_CTS_TouchInfo                                          2037E3    "D:\Prj_GPCE3400\ZMM001A(EN)_MMMMMMM\soft\V46_asV34\Debug\CTS_Sensor.obj"
T_CTS_SchmittH                                           2037EA    "D:\Prj_GPCE3400\ZMM001A(EN)_MMMMMMM\soft\V46_asV34\Debug\CTS_Sensor.obj"
T_CTS_SchmittL                                           2037EC    "D:\Prj_GPCE3400\ZMM001A(EN)_MMMMMMM\soft\V46_asV34\Debug\CTS_Sensor.obj"
F_CTS_User_Init                                          20388E    "D:\Prj_GPCE3400\ZMM001A(EN)_MMMMMMM\soft\V46_asV34\Debug\CTS_Sensor.obj"
_CTS_CH_Sel                                              2038AF    "D:\Prj_GPCE3400\ZMM001A(EN)_MMMMMMM\soft\V46_asV34\Debug\CTS_Sensor.obj"
F_CTS_CH_Sel                                             2038AF    "D:\Prj_GPCE3400\ZMM001A(EN)_MMMMMMM\soft\V46_asV34\Debug\CTS_Sensor.obj"
_CTS_Start                                               2038BD    "D:\Prj_GPCE3400\ZMM001A(EN)_MMMMMMM\soft\V46_asV34\Debug\CTS_Sensor.obj"
F_CTS_Start                                              2038BD    "D:\Prj_GPCE3400\ZMM001A(EN)_MMMMMMM\soft\V46_asV34\Debug\CTS_Sensor.obj"
F_CTS_ScanOneRound                                       2038F4    "D:\Prj_GPCE3400\ZMM001A(EN)_MMMMMMM\soft\V46_asV34\Debug\CTS_Sensor.obj"
F_CTS_Get_SchmittH                                       2038DE    "D:\Prj_GPCE3400\ZMM001A(EN)_MMMMMMM\soft\V46_asV34\Debug\CTS_Sensor.obj"
F_CTS_Get_SchmittL                                       2038E9    "D:\Prj_GPCE3400\ZMM001A(EN)_MMMMMMM\soft\V46_asV34\Debug\CTS_Sensor.obj"
F_CTS_GetScanTime                                        2038F5    "D:\Prj_GPCE3400\ZMM001A(EN)_MMMMMMM\soft\V46_asV34\Debug\CTS_Sensor.obj"
_Init_CTS                                                203955    "D:\Prj_GPCE3400\ZMM001A(EN)_MMMMMMM\soft\V46_asV34\Debug\CTS_User.obj"
_TS_CTS_ServiceLoop                                      20396F    "D:\Prj_GPCE3400\ZMM001A(EN)_MMMMMMM\soft\V46_asV34\Debug\CTS_User.obj"
_TriggeredPad                                            5EA       "D:\Prj_GPCE3400\ZMM001A(EN)_MMMMMMM\soft\V46_asV34\Debug\CTS_User.obj"
_PreCtsResult                                            5EB       "D:\Prj_GPCE3400\ZMM001A(EN)_MMMMMMM\soft\V46_asV34\Debug\CTS_User.obj"
__RES_ROM_ZMM_V14_PRO_BIN_sa                             208342    "D:\Prj_GPCE3400\ZMM001A(EN)_MMMMMMM\soft\V46_asV34\Debug\Rom_ZMM_V14_Pro_bin.res"
__RES_ROM_ZMM_V14_PRO_BIN_ea                             2CBC54    "D:\Prj_GPCE3400\ZMM001A(EN)_MMMMMMM\soft\V46_asV34\Debug\Rom_ZMM_V14_Pro_bin.res"
***********************************************************************************************************************************************************************************************************************************************************************************************************

***********************************************************************************************************************************************************************************************************************************************************************************************************
*                             S E C T I O N     S U M M A R Y                                                                                                                                                                                                                                             *
***********************************************************************************************************************************************************************************************************************************************************************************************************
*     Section Name                                       Startting Address   Ending Address      Size                                                                                                                                                                                                     *
***********************************************************************************************************************************************************************************************************************************************************************************************************
* "D:\Prj_GPCE3400\ZMM001A(EN)_MMMMMMM\soft\V46_asV34\Debug\main.obj"                                                                                                                                                                                                                                     *
*    DEBUG                                               ----                ----                ----                                                                                                                                                                                                     *
*    _CODE_SPI_SEC(CODE)                                 205621              2058E7              2C7                                                                                                                                                                                                      *
*    _DATA_SPI_SEC(DATA)                                 ----                ----                ----                                                                                                                                                                                                     *
*    TEXT                                                ----                ----                ----                                                                                                                                                                                                     *
*    IRAM                                                203504(5F3)         20350C(5FB)         9                                                                                                                                                                                                        *
*    ISRAM                                               ----                ----                ----                                                                                                                                                                                                     *
*    RAM                                                 ----                ----                ----                                                                                                                                                                                                     *
*    SRAM                                                ----                ----                ----                                                                                                                                                                                                     *
*    ORAM                                                ----                ----                ----                                                                                                                                                                                                     *
*    OSRAM                                               ----                ----                ----                                                                                                                                                                                                     *
*    NB_DATA                                             ----                ----                ----                                                                                                                                                                                                     *
*    CTOR                                                ----                ----                ----                                                                                                                                                                                                     *
*    DTOR                                                ----                ----                ----                                                                                                                                                                                                     *
*    IM                                                  ----                ----                ----                                                                                                                                                                                                     *
*    LINKONCE                                            ----                ----                ----                                                                                                                                                                                                     *
*    VTBL                                                ----                ----                ----                                                                                                                                                                                                     *
*    NB_MERGE                                            ----                ----                ----                                                                                                                                                                                                     *
*    RAM_BANK0                                           ----                ----                ----                                                                                                                                                                                                     *
*    IRAM_BANK0                                          ----                ----                ----                                                                                                                                                                                                     *
*    ORAM_BANK0                                          ----                ----                ----                                                                                                                                                                                                     *
* "D:\Prj_GPCE3400\ZMM001A(EN)_MMMMMMM\soft\V46_asV34\Debug\isr.obj"                                                                                                                                                                                                                                      *
*    DEBUG                                               ----                ----                ----                                                                                                                                                                                                     *
*    _CODE_SPI_SEC(CODE)                                 204C17              204CCA              B4                                                                                                                                                                                                       *
*    _DATA_SPI_SEC(DATA)                                 ----                ----                ----                                                                                                                                                                                                     *
*    TEXT                                                ----                ----                ----                                                                                                                                                                                                     *
*    IRAM                                                ----                ----                ----                                                                                                                                                                                                     *
*    ISRAM                                               ----                ----                ----                                                                                                                                                                                                     *
*    RAM                                                 ----                ----                ----                                                                                                                                                                                                     *
*    SRAM                                                ----                ----                ----                                                                                                                                                                                                     *
*    ORAM                                                ----                ----                ----                                                                                                                                                                                                     *
*    OSRAM                                               ----                ----                ----                                                                                                                                                                                                     *
*    NB_DATA                                             ----                ----                ----                                                                                                                                                                                                     *
*    CTOR                                                ----                ----                ----                                                                                                                                                                                                     *
*    DTOR                                                ----                ----                ----                                                                                                                                                                                                     *
*    IM                                                  ----                ----                ----                                                                                                                                                                                                     *
*    LINKONCE                                            ----                ----                ----                                                                                                                                                                                                     *
*    VTBL                                                ----                ----                ----                                                                                                                                                                                                     *
*    NB_MERGE                                            ----                ----                ----                                                                                                                                                                                                     *
*    RAM_BANK0                                           ----                ----                ----                                                                                                                                                                                                     *
*    IRAM_BANK0                                          ----                ----                ----                                                                                                                                                                                                     *
*    ORAM_BANK0                                          ----                ----                ----                                                                                                                                                                                                     *
* "D:\Prj_GPCE3400\ZMM001A(EN)_MMMMMMM\soft\V46_asV34\Debug\Resource.obj"                                                                                                                                                                                                                                 *
*    DEBUG                                               ----                ----                ----                                                                                                                                                                                                     *
*    _CODE_SPI_SEC(CODE)                                 204800              204803              4                                                                                                                                                                                                        *
*    _DATA_SPI_SEC(DATA)                                 ----                ----                ----                                                                                                                                                                                                     *
*    TEXT                                                ----                ----                ----                                                                                                                                                                                                     *
*    IRAM                                                ----                ----                ----                                                                                                                                                                                                     *
*    ISRAM                                               ----                ----                ----                                                                                                                                                                                                     *
*    RAM                                                 ----                ----                ----                                                                                                                                                                                                     *
*    SRAM                                                ----                ----                ----                                                                                                                                                                                                     *
*    ORAM                                                ----                ----                ----                                                                                                                                                                                                     *
*    OSRAM                                               ----                ----                ----                                                                                                                                                                                                     *
*    NB_DATA                                             ----                ----                ----                                                                                                                                                                                                     *
*    CTOR                                                ----                ----                ----                                                                                                                                                                                                     *
*    DTOR                                                ----                ----                ----                                                                                                                                                                                                     *
*    IM                                                  ----                ----                ----                                                                                                                                                                                                     *
*    LINKONCE                                            ----                ----                ----                                                                                                                                                                                                     *
*    VTBL                                                ----                ----                ----                                                                                                                                                                                                     *
*    NB_MERGE                                            ----                ----                ----                                                                                                                                                                                                     *
*    RAM_BANK0                                           ----                ----                ----                                                                                                                                                                                                     *
*    IRAM_BANK0                                          ----                ----                ----                                                                                                                                                                                                     *
*    ORAM_BANK0                                          ----                ----                ----                                                                                                                                                                                                     *
* "D:\Prj_GPCE3400\ZMM001A(EN)_MMMMMMM\soft\V46_asV34\Debug\BootCode_User.obj"                                                                                                                                                                                                                            *
*    DEBUG                                               ----                ----                ----                                                                                                                                                                                                     *
*    _CODE_SPI_SEC(CODE)                                 2048A5              2048E7              43                                                                                                                                                                                                       *
*    _DATA_SPI_SEC(DATA)                                 ----                ----                ----                                                                                                                                                                                                     *
*    TEXT                                                ----                ----                ----                                                                                                                                                                                                     *
*    IRAM                                                ----                ----                ----                                                                                                                                                                                                     *
*    ISRAM                                               ----                ----                ----                                                                                                                                                                                                     *
*    RAM                                                 5B0                 5B0                 1                                                                                                                                                                                                        *
*    SRAM                                                ----                ----                ----                                                                                                                                                                                                     *
*    ORAM                                                ----                ----                ----                                                                                                                                                                                                     *
*    OSRAM                                               ----                ----                ----                                                                                                                                                                                                     *
*    NB_DATA                                             ----                ----                ----                                                                                                                                                                                                     *
*    CTOR                                                ----                ----                ----                                                                                                                                                                                                     *
*    DTOR                                                ----                ----                ----                                                                                                                                                                                                     *
*    IM                                                  ----                ----                ----                                                                                                                                                                                                     *
*    LINKONCE                                            ----                ----                ----                                                                                                                                                                                                     *
*    VTBL                                                ----                ----                ----                                                                                                                                                                                                     *
*    NB_MERGE                                            ----                ----                ----                                                                                                                                                                                                     *
*    RAM_BANK0                                           ----                ----                ----                                                                                                                                                                                                     *
*    IRAM_BANK0                                          ----                ----                ----                                                                                                                                                                                                     *
*    ORAM_BANK0                                          ----                ----                ----                                                                                                                                                                                                     *
*    BootCode_SEC(CODE)                                  200100(100)         20039A(39A)         29B                                                                                                                                                                                                      *
* "D:\Prj_GPCE3400\ZMM001A(EN)_MMMMMMM\soft\V46_asV34\Debug\ORAM_Arrangement.obj"                                                                                                                                                                                                                         *
*    DEBUG                                               ----                ----                ----                                                                                                                                                                                                     *
*    _CODE_SPI_SEC(CODE)                                 ----                ----                ----                                                                                                                                                                                                     *
*    _DATA_SPI_SEC(DATA)                                 ----                ----                ----                                                                                                                                                                                                     *
*    TEXT                                                ----                ----                ----                                                                                                                                                                                                     *
*    IRAM                                                ----                ----                ----                                                                                                                                                                                                     *
*    ISRAM                                               ----                ----                ----                                                                                                                                                                                                     *
*    RAM                                                 ----                ----                ----                                                                                                                                                                                                     *
*    SRAM                                                ----                ----                ----                                                                                                                                                                                                     *
*    ORAM                                                ----                ----                ----                                                                                                                                                                                                     *
*    OSRAM                                               ----                ----                ----                                                                                                                                                                                                     *
*    NB_DATA                                             ----                ----                ----                                                                                                                                                                                                     *
*    CTOR                                                ----                ----                ----                                                                                                                                                                                                     *
*    DTOR                                                ----                ----                ----                                                                                                                                                                                                     *
*    IM                                                  ----                ----                ----                                                                                                                                                                                                     *
*    LINKONCE                                            ----                ----                ----                                                                                                                                                                                                     *
*    VTBL                                                ----                ----                ----                                                                                                                                                                                                     *
*    NB_MERGE                                            ----                ----                ----                                                                                                                                                                                                     *
*    RAM_BANK0                                           ----                ----                ----                                                                                                                                                                                                     *
*    IRAM_BANK0                                          ----                ----                ----                                                                                                                                                                                                     *
*    ORAM_BANK0                                          ----                ----                ----                                                                                                                                                                                                     *
*    OVERLAP_A3400Pro_BLOCK(ORAM)                        10                  29                  1A                                                                                                                                                                                                       *
*    OVERLAP_A1800_BLOCK(ORAM)                           2A                  598                 56F                                                                                                                                                                                                      *
* "D:\Prj_GPCE3400\ZMM001A(EN)_MMMMMMM\soft\V46_asV34\Debug\SACM_A1800_User.obj"                                                                                                                                                                                                                          *
*    DEBUG                                               ----                ----                ----                                                                                                                                                                                                     *
*    _CODE_SPI_SEC(CODE)                                 204839              20486E              36                                                                                                                                                                                                       *
*    _DATA_SPI_SEC(DATA)                                 ----                ----                ----                                                                                                                                                                                                     *
*    TEXT                                                ----                ----                ----                                                                                                                                                                                                     *
*    IRAM                                                ----                ----                ----                                                                                                                                                                                                     *
*    ISRAM                                               ----                ----                ----                                                                                                                                                                                                     *
*    RAM                                                 5B1                 5B5                 5                                                                                                                                                                                                        *
*    SRAM                                                ----                ----                ----                                                                                                                                                                                                     *
*    ORAM                                                ----                ----                ----                                                                                                                                                                                                     *
*    OSRAM                                               ----                ----                ----                                                                                                                                                                                                     *
*    NB_DATA                                             ----                ----                ----                                                                                                                                                                                                     *
*    CTOR                                                ----                ----                ----                                                                                                                                                                                                     *
*    DTOR                                                ----                ----                ----                                                                                                                                                                                                     *
*    IM                                                  ----                ----                ----                                                                                                                                                                                                     *
*    LINKONCE                                            ----                ----                ----                                                                                                                                                                                                     *
*    VTBL                                                ----                ----                ----                                                                                                                                                                                                     *
*    NB_MERGE                                            ----                ----                ----                                                                                                                                                                                                     *
*    RAM_BANK0                                           ----                ----                ----                                                                                                                                                                                                     *
*    IRAM_BANK0                                          ----                ----                ----                                                                                                                                                                                                     *
*    ORAM_BANK0                                          ----                ----                ----                                                                                                                                                                                                     *
*    L_A1800_SendDAC_SEC(CODE)                           2050C0              20518F              D0                                                                                                                                                                                                       *
*    A1800_LibCallback_SEC(CODE)                         201880              2018F1              72                                                                                                                                                                                                       *
* "D:\Prj_GPCE3400\ZMM001A(EN)_MMMMMMM\soft\V46_asV34\Debug\system.obj"                                                                                                                                                                                                                                   *
*    DEBUG                                               ----                ----                ----                                                                                                                                                                                                     *
*    _CODE_SPI_SEC(CODE)                                 204EA6              204FE9              144                                                                                                                                                                                                      *
*    _DATA_SPI_SEC(DATA)                                 ----                ----                ----                                                                                                                                                                                                     *
*    TEXT                                                ----                ----                ----                                                                                                                                                                                                     *
*    IRAM                                                ----                ----                ----                                                                                                                                                                                                     *
*    ISRAM                                               ----                ----                ----                                                                                                                                                                                                     *
*    RAM                                                 5B6                 5B8                 3                                                                                                                                                                                                        *
*    SRAM                                                ----                ----                ----                                                                                                                                                                                                     *
*    ORAM                                                ----                ----                ----                                                                                                                                                                                                     *
*    OSRAM                                               ----                ----                ----                                                                                                                                                                                                     *
*    NB_DATA                                             ----                ----                ----                                                                                                                                                                                                     *
*    CTOR                                                ----                ----                ----                                                                                                                                                                                                     *
*    DTOR                                                ----                ----                ----                                                                                                                                                                                                     *
*    IM                                                  ----                ----                ----                                                                                                                                                                                                     *
*    LINKONCE                                            ----                ----                ----                                                                                                                                                                                                     *
*    VTBL                                                ----                ----                ----                                                                                                                                                                                                     *
*    NB_MERGE                                            ----                ----                ----                                                                                                                                                                                                     *
*    RAM_BANK0                                           ----                ----                ----                                                                                                                                                                                                     *
*    IRAM_BANK0                                          ----                ----                ----                                                                                                                                                                                                     *
*    ORAM_BANK0                                          ----                ----                ----                                                                                                                                                                                                     *
*    L_SW_MuteControl_SEC(CODE)                          205000              205037              38                                                                                                                                                                                                       *
*    RampUpDn_LibCallback_SEC(CODE)                      201920              201927              8                                                                                                                                                                                                        *
* "D:\Prj_GPCE3400\ZMM001A(EN)_MMMMMMM\soft\V46_asV34\Debug\flash.obj"                                                                                                                                                                                                                                    *
*    DEBUG                                               ----                ----                ----                                                                                                                                                                                                     *
*    _CODE_SPI_SEC(CODE)                                 2049FB              204A79              7F                                                                                                                                                                                                       *
*    _DATA_SPI_SEC(DATA)                                 ----                ----                ----                                                                                                                                                                                                     *
*    TEXT                                                ----                ----                ----                                                                                                                                                                                                     *
*    IRAM                                                ----                ----                ----                                                                                                                                                                                                     *
*    ISRAM                                               ----                ----                ----                                                                                                                                                                                                     *
*    RAM                                                 ----                ----                ----                                                                                                                                                                                                     *
*    SRAM                                                ----                ----                ----                                                                                                                                                                                                     *
*    ORAM                                                ----                ----                ----                                                                                                                                                                                                     *
*    OSRAM                                               ----                ----                ----                                                                                                                                                                                                     *
*    NB_DATA                                             ----                ----                ----                                                                                                                                                                                                     *
*    CTOR                                                ----                ----                ----                                                                                                                                                                                                     *
*    DTOR                                                ----                ----                ----                                                                                                                                                                                                     *
*    IM                                                  ----                ----                ----                                                                                                                                                                                                     *
*    LINKONCE                                            ----                ----                ----                                                                                                                                                                                                     *
*    VTBL                                                ----                ----                ----                                                                                                                                                                                                     *
*    NB_MERGE                                            ----                ----                ----                                                                                                                                                                                                     *
*    RAM_BANK0                                           ----                ----                ----                                                                                                                                                                                                     *
*    IRAM_BANK0                                          ----                ----                ----                                                                                                                                                                                                     *
*    ORAM_BANK0                                          ----                ----                ----                                                                                                                                                                                                     *
* "D:\Prj_GPCE3400\ZMM001A(EN)_MMMMMMM\soft\V46_asV34\Debug\Calc.obj"                                                                                                                                                                                                                                     *
*    DEBUG                                               ----                ----                ----                                                                                                                                                                                                     *
*    _CODE_SPI_SEC(CODE)                                 204804              204838              35                                                                                                                                                                                                       *
*    _DATA_SPI_SEC(DATA)                                 ----                ----                ----                                                                                                                                                                                                     *
*    TEXT                                                ----                ----                ----                                                                                                                                                                                                     *
*    IRAM                                                ----                ----                ----                                                                                                                                                                                                     *
*    ISRAM                                               ----                ----                ----                                                                                                                                                                                                     *
*    RAM                                                 ----                ----                ----                                                                                                                                                                                                     *
*    SRAM                                                ----                ----                ----                                                                                                                                                                                                     *
*    ORAM                                                ----                ----                ----                                                                                                                                                                                                     *
*    OSRAM                                               ----                ----                ----                                                                                                                                                                                                     *
*    NB_DATA                                             ----                ----                ----                                                                                                                                                                                                     *
*    CTOR                                                ----                ----                ----                                                                                                                                                                                                     *
*    DTOR                                                ----                ----                ----                                                                                                                                                                                                     *
*    IM                                                  ----                ----                ----                                                                                                                                                                                                     *
*    LINKONCE                                            ----                ----                ----                                                                                                                                                                                                     *
*    VTBL                                                ----                ----                ----                                                                                                                                                                                                     *
*    NB_MERGE                                            ----                ----                ----                                                                                                                                                                                                     *
*    RAM_BANK0                                           ----                ----                ----                                                                                                                                                                                                     *
*    IRAM_BANK0                                          ----                ----                ----                                                                                                                                                                                                     *
*    ORAM_BANK0                                          ----                ----                ----                                                                                                                                                                                                     *
* "D:\Prj_GPCE3400\ZMM001A(EN)_MMMMMMM\soft\V46_asV34\Debug\System_2.obj"                                                                                                                                                                                                                                 *
*    DEBUG                                               ----                ----                ----                                                                                                                                                                                                     *
*    _CODE_SPI_SEC(CODE)                                 204D84              204EA5              122                                                                                                                                                                                                      *
*    _DATA_SPI_SEC(DATA)                                 ----                ----                ----                                                                                                                                                                                                     *
*    TEXT                                                ----                ----                ----                                                                                                                                                                                                     *
*    IRAM                                                ----                ----                ----                                                                                                                                                                                                     *
*    ISRAM                                               ----                ----                ----                                                                                                                                                                                                     *
*    RAM                                                 5B9                 5C2                 A                                                                                                                                                                                                        *
*    SRAM                                                ----                ----                ----                                                                                                                                                                                                     *
*    ORAM                                                ----                ----                ----                                                                                                                                                                                                     *
*    OSRAM                                               ----                ----                ----                                                                                                                                                                                                     *
*    NB_DATA                                             ----                ----                ----                                                                                                                                                                                                     *
*    CTOR                                                ----                ----                ----                                                                                                                                                                                                     *
*    DTOR                                                ----                ----                ----                                                                                                                                                                                                     *
*    IM                                                  ----                ----                ----                                                                                                                                                                                                     *
*    LINKONCE                                            ----                ----                ----                                                                                                                                                                                                     *
*    VTBL                                                ----                ----                ----                                                                                                                                                                                                     *
*    NB_MERGE                                            ----                ----                ----                                                                                                                                                                                                     *
*    RAM_BANK0                                           ----                ----                ----                                                                                                                                                                                                     *
*    IRAM_BANK0                                          ----                ----                ----                                                                                                                                                                                                     *
*    ORAM_BANK0                                          ----                ----                ----                                                                                                                                                                                                     *
*    SleepCode_RAMCode_SEC(CODE)                         205200(10)          2052AB(BB)          AC                                                                                                                                                                                                       *
* "D:\Prj_GPCE3400\ZMM001A(EN)_MMMMMMM\soft\V46_asV34\Debug\LED_Drive.obj"                                                                                                                                                                                                                                *
*    DEBUG                                               ----                ----                ----                                                                                                                                                                                                     *
*    _CODE_SPI_SEC(CODE)                                 20486F              2048A4              36                                                                                                                                                                                                       *
*    _DATA_SPI_SEC(DATA)                                 ----                ----                ----                                                                                                                                                                                                     *
*    TEXT                                                ----                ----                ----                                                                                                                                                                                                     *
*    IRAM                                                ----                ----                ----                                                                                                                                                                                                     *
*    ISRAM                                               ----                ----                ----                                                                                                                                                                                                     *
*    RAM                                                 ----                ----                ----                                                                                                                                                                                                     *
*    SRAM                                                ----                ----                ----                                                                                                                                                                                                     *
*    ORAM                                                ----                ----                ----                                                                                                                                                                                                     *
*    OSRAM                                               ----                ----                ----                                                                                                                                                                                                     *
*    NB_DATA                                             ----                ----                ----                                                                                                                                                                                                     *
*    CTOR                                                ----                ----                ----                                                                                                                                                                                                     *
*    DTOR                                                ----                ----                ----                                                                                                                                                                                                     *
*    IM                                                  ----                ----                ----                                                                                                                                                                                                     *
*    LINKONCE                                            ----                ----                ----                                                                                                                                                                                                     *
*    VTBL                                                ----                ----                ----                                                                                                                                                                                                     *
*    NB_MERGE                                            ----                ----                ----                                                                                                                                                                                                     *
*    RAM_BANK0                                           ----                ----                ----                                                                                                                                                                                                     *
*    IRAM_BANK0                                          ----                ----                ----                                                                                                                                                                                                     *
*    ORAM_BANK0                                          ----                ----                ----                                                                                                                                                                                                     *
* "D:\Prj_GPCE3400\ZMM001A(EN)_MMMMMMM\soft\V46_asV34\Debug\Algorithm.obj"                                                                                                                                                                                                                                *
*    DEBUG                                               ----                ----                ----                                                                                                                                                                                                     *
*    _CODE_SPI_SEC(CODE)                                 205CAC              208341              2696                                                                                                                                                                                                     *
*    _DATA_SPI_SEC(DATA)                                 ----                ----                ----                                                                                                                                                                                                     *
*    TEXT                                                ----                ----                ----                                                                                                                                                                                                     *
*    IRAM                                                20350D(5FC)         203603(6F2)         F7                                                                                                                                                                                                       *
*    ISRAM                                               ----                ----                ----                                                                                                                                                                                                     *
*    RAM                                                 ----                ----                ----                                                                                                                                                                                                     *
*    SRAM                                                ----                ----                ----                                                                                                                                                                                                     *
*    ORAM                                                ----                ----                ----                                                                                                                                                                                                     *
*    OSRAM                                               ----                ----                ----                                                                                                                                                                                                     *
*    NB_DATA                                             20190A              20191E              15                                                                                                                                                                                                       *
*    CTOR                                                ----                ----                ----                                                                                                                                                                                                     *
*    DTOR                                                ----                ----                ----                                                                                                                                                                                                     *
*    IM                                                  ----                ----                ----                                                                                                                                                                                                     *
*    LINKONCE                                            ----                ----                ----                                                                                                                                                                                                     *
*    VTBL                                                ----                ----                ----                                                                                                                                                                                                     *
*    NB_MERGE                                            ----                ----                ----                                                                                                                                                                                                     *
*    RAM_BANK0                                           ----                ----                ----                                                                                                                                                                                                     *
*    IRAM_BANK0                                          ----                ----                ----                                                                                                                                                                                                     *
*    ORAM_BANK0                                          ----                ----                ----                                                                                                                                                                                                     *
* "D:\Prj_GPCE3400\ZMM001A(EN)_MMMMMMM\soft\V46_asV34\Debug\Play_Speech.obj"                                                                                                                                                                                                                              *
*    DEBUG                                               ----                ----                ----                                                                                                                                                                                                     *
*    _CODE_SPI_SEC(CODE)                                 2058E8              205CAB              3C4                                                                                                                                                                                                      *
*    _DATA_SPI_SEC(DATA)                                 ----                ----                ----                                                                                                                                                                                                     *
*    TEXT                                                ----                ----                ----                                                                                                                                                                                                     *
*    IRAM                                                2034FD(5EC)         203503(5F2)         7                                                                                                                                                                                                        *
*    ISRAM                                               ----                ----                ----                                                                                                                                                                                                     *
*    RAM                                                 ----                ----                ----                                                                                                                                                                                                     *
*    SRAM                                                ----                ----                ----                                                                                                                                                                                                     *
*    ORAM                                                ----                ----                ----                                                                                                                                                                                                     *
*    OSRAM                                               ----                ----                ----                                                                                                                                                                                                     *
*    NB_DATA                                             ----                ----                ----                                                                                                                                                                                                     *
*    CTOR                                                ----                ----                ----                                                                                                                                                                                                     *
*    DTOR                                                ----                ----                ----                                                                                                                                                                                                     *
*    IM                                                  ----                ----                ----                                                                                                                                                                                                     *
*    LINKONCE                                            ----                ----                ----                                                                                                                                                                                                     *
*    VTBL                                                ----                ----                ----                                                                                                                                                                                                     *
*    NB_MERGE                                            ----                ----                ----                                                                                                                                                                                                     *
*    RAM_BANK0                                           ----                ----                ----                                                                                                                                                                                                     *
*    IRAM_BANK0                                          ----                ----                ----                                                                                                                                                                                                     *
*    ORAM_BANK0                                          ----                ----                ----                                                                                                                                                                                                     *
* "D:\Prj_GPCE3400\ZMM001A(EN)_MMMMMMM\soft\V46_asV34\Debug\Key_server.obj"                                                                                                                                                                                                                               *
*    DEBUG                                               ----                ----                ----                                                                                                                                                                                                     *
*    _CODE_SPI_SEC(CODE)                                 204AFE              204B89              8C                                                                                                                                                                                                       *
*    _DATA_SPI_SEC(DATA)                                 ----                ----                ----                                                                                                                                                                                                     *
*    TEXT                                                ----                ----                ----                                                                                                                                                                                                     *
*    IRAM                                                ----                ----                ----                                                                                                                                                                                                     *
*    ISRAM                                               ----                ----                ----                                                                                                                                                                                                     *
*    RAM                                                 5C3                 5C8                 6                                                                                                                                                                                                        *
*    SRAM                                                ----                ----                ----                                                                                                                                                                                                     *
*    ORAM                                                ----                ----                ----                                                                                                                                                                                                     *
*    OSRAM                                               ----                ----                ----                                                                                                                                                                                                     *
*    NB_DATA                                             ----                ----                ----                                                                                                                                                                                                     *
*    CTOR                                                ----                ----                ----                                                                                                                                                                                                     *
*    DTOR                                                ----                ----                ----                                                                                                                                                                                                     *
*    IM                                                  ----                ----                ----                                                                                                                                                                                                     *
*    LINKONCE                                            ----                ----                ----                                                                                                                                                                                                     *
*    VTBL                                                ----                ----                ----                                                                                                                                                                                                     *
*    NB_MERGE                                            ----                ----                ----                                                                                                                                                                                                     *
*    RAM_BANK0                                           ----                ----                ----                                                                                                                                                                                                     *
*    IRAM_BANK0                                          ----                ----                ----                                                                                                                                                                                                     *
*    ORAM_BANK0                                          ----                ----                ----                                                                                                                                                                                                     *
* "D:\Prj_GPCE3400\ZMM001A(EN)_MMMMMMM\soft\V46_asV34\Debug\Sleep.obj"                                                                                                                                                                                                                                    *
*    DEBUG                                               ----                ----                ----                                                                                                                                                                                                     *
*    _CODE_SPI_SEC(CODE)                                 204CCB              204D83              B9                                                                                                                                                                                                       *
*    _DATA_SPI_SEC(DATA)                                 ----                ----                ----                                                                                                                                                                                                     *
*    TEXT                                                ----                ----                ----                                                                                                                                                                                                     *
*    IRAM                                                ----                ----                ----                                                                                                                                                                                                     *
*    ISRAM                                               ----                ----                ----                                                                                                                                                                                                     *
*    RAM                                                 ----                ----                ----                                                                                                                                                                                                     *
*    SRAM                                                ----                ----                ----                                                                                                                                                                                                     *
*    ORAM                                                ----                ----                ----                                                                                                                                                                                                     *
*    OSRAM                                               ----                ----                ----                                                                                                                                                                                                     *
*    NB_DATA                                             ----                ----                ----                                                                                                                                                                                                     *
*    CTOR                                                ----                ----                ----                                                                                                                                                                                                     *
*    DTOR                                                ----                ----                ----                                                                                                                                                                                                     *
*    IM                                                  ----                ----                ----                                                                                                                                                                                                     *
*    LINKONCE                                            ----                ----                ----                                                                                                                                                                                                     *
*    VTBL                                                ----                ----                ----                                                                                                                                                                                                     *
*    NB_MERGE                                            ----                ----                ----                                                                                                                                                                                                     *
*    RAM_BANK0                                           ----                ----                ----                                                                                                                                                                                                     *
*    IRAM_BANK0                                          ----                ----                ----                                                                                                                                                                                                     *
*    ORAM_BANK0                                          ----                ----                ----                                                                                                                                                                                                     *
* "D:\Prj_GPCE3400\ZMM001A(EN)_MMMMMMM\soft\V46_asV34\Debug\CheckSum_CE3400.obj"                                                                                                                                                                                                                          *
*    DEBUG                                               ----                ----                ----                                                                                                                                                                                                     *
*    _CODE_SPI_SEC(CODE)                                 20498B              2049FA              70                                                                                                                                                                                                       *
*    _DATA_SPI_SEC(DATA)                                 ----                ----                ----                                                                                                                                                                                                     *
*    TEXT                                                ----                ----                ----                                                                                                                                                                                                     *
*    IRAM                                                ----                ----                ----                                                                                                                                                                                                     *
*    ISRAM                                               ----                ----                ----                                                                                                                                                                                                     *
*    RAM                                                 ----                ----                ----                                                                                                                                                                                                     *
*    SRAM                                                ----                ----                ----                                                                                                                                                                                                     *
*    ORAM                                                ----                ----                ----                                                                                                                                                                                                     *
*    OSRAM                                               ----                ----                ----                                                                                                                                                                                                     *
*    NB_DATA                                             ----                ----                ----                                                                                                                                                                                                     *
*    CTOR                                                ----                ----                ----                                                                                                                                                                                                     *
*    DTOR                                                ----                ----                ----                                                                                                                                                                                                     *
*    IM                                                  ----                ----                ----                                                                                                                                                                                                     *
*    LINKONCE                                            ----                ----                ----                                                                                                                                                                                                     *
*    VTBL                                                ----                ----                ----                                                                                                                                                                                                     *
*    NB_MERGE                                            ----                ----                ----                                                                                                                                                                                                     *
*    RAM_BANK0                                           ----                ----                ----                                                                                                                                                                                                     *
*    IRAM_BANK0                                          ----                ----                ----                                                                                                                                                                                                     *
*    ORAM_BANK0                                          ----                ----                ----                                                                                                                                                                                                     *
* "D:\Prj_GPCE3400\ZMM001A(EN)_MMMMMMM\soft\V46_asV34\Debug\TestBondingC.obj"                                                                                                                                                                                                                             *
*    DEBUG                                               ----                ----                ----                                                                                                                                                                                                     *
*    _CODE_SPI_SEC(CODE)                                 204936              20498A              55                                                                                                                                                                                                       *
*    _DATA_SPI_SEC(DATA)                                 ----                ----                ----                                                                                                                                                                                                     *
*    TEXT                                                ----                ----                ----                                                                                                                                                                                                     *
*    IRAM                                                ----                ----                ----                                                                                                                                                                                                     *
*    ISRAM                                               ----                ----                ----                                                                                                                                                                                                     *
*    RAM                                                 ----                ----                ----                                                                                                                                                                                                     *
*    SRAM                                                ----                ----                ----                                                                                                                                                                                                     *
*    ORAM                                                ----                ----                ----                                                                                                                                                                                                     *
*    OSRAM                                               ----                ----                ----                                                                                                                                                                                                     *
*    NB_DATA                                             ----                ----                ----                                                                                                                                                                                                     *
*    CTOR                                                ----                ----                ----                                                                                                                                                                                                     *
*    DTOR                                                ----                ----                ----                                                                                                                                                                                                     *
*    IM                                                  ----                ----                ----                                                                                                                                                                                                     *
*    LINKONCE                                            ----                ----                ----                                                                                                                                                                                                     *
*    VTBL                                                ----                ----                ----                                                                                                                                                                                                     *
*    NB_MERGE                                            ----                ----                ----                                                                                                                                                                                                     *
*    RAM_BANK0                                           ----                ----                ----                                                                                                                                                                                                     *
*    IRAM_BANK0                                          ----                ----                ----                                                                                                                                                                                                     *
*    ORAM_BANK0                                          ----                ----                ----                                                                                                                                                                                                     *
* "D:\Prj_GPCE3400\ZMM001A(EN)_MMMMMMM\soft\V46_asV34\Debug\LED.obj"                                                                                                                                                                                                                                      *
*    DEBUG                                               ----                ----                ----                                                                                                                                                                                                     *
*    _CODE_SPI_SEC(CODE)                                 204B8A              204C16              8D                                                                                                                                                                                                       *
*    _DATA_SPI_SEC(DATA)                                 ----                ----                ----                                                                                                                                                                                                     *
*    TEXT                                                ----                ----                ----                                                                                                                                                                                                     *
*    IRAM                                                2034F8(5E7)         2034F8(5E7)         1                                                                                                                                                                                                        *
*    ISRAM                                               ----                ----                ----                                                                                                                                                                                                     *
*    RAM                                                 ----                ----                ----                                                                                                                                                                                                     *
*    SRAM                                                ----                ----                ----                                                                                                                                                                                                     *
*    ORAM                                                ----                ----                ----                                                                                                                                                                                                     *
*    OSRAM                                               ----                ----                ----                                                                                                                                                                                                     *
*    NB_DATA                                             ----                ----                ----                                                                                                                                                                                                     *
*    CTOR                                                ----                ----                ----                                                                                                                                                                                                     *
*    DTOR                                                ----                ----                ----                                                                                                                                                                                                     *
*    IM                                                  ----                ----                ----                                                                                                                                                                                                     *
*    LINKONCE                                            ----                ----                ----                                                                                                                                                                                                     *
*    VTBL                                                ----                ----                ----                                                                                                                                                                                                     *
*    NB_MERGE                                            ----                ----                ----                                                                                                                                                                                                     *
*    RAM_BANK0                                           ----                ----                ----                                                                                                                                                                                                     *
*    IRAM_BANK0                                          ----                ----                ----                                                                                                                                                                                                     *
*    ORAM_BANK0                                          ----                ----                ----                                                                                                                                                                                                     *
* "D:\Prj_GPCE3400\ZMM001A(EN)_MMMMMMM\soft\V46_asV34\Debug\AntiCrack.obj"                                                                                                                                                                                                                                *
*    DEBUG                                               ----                ----                ----                                                                                                                                                                                                     *
*    _CODE_SPI_SEC(CODE)                                 2048E8              204935              4E                                                                                                                                                                                                       *
*    _DATA_SPI_SEC(DATA)                                 ----                ----                ----                                                                                                                                                                                                     *
*    TEXT                                                ----                ----                ----                                                                                                                                                                                                     *
*    IRAM                                                2034F9(5E8)         2034F9(5E8)         1                                                                                                                                                                                                        *
*    ISRAM                                               ----                ----                ----                                                                                                                                                                                                     *
*    RAM                                                 ----                ----                ----                                                                                                                                                                                                     *
*    SRAM                                                ----                ----                ----                                                                                                                                                                                                     *
*    ORAM                                                ----                ----                ----                                                                                                                                                                                                     *
*    OSRAM                                               ----                ----                ----                                                                                                                                                                                                     *
*    NB_DATA                                             201928              20192A              3                                                                                                                                                                                                        *
*    CTOR                                                ----                ----                ----                                                                                                                                                                                                     *
*    DTOR                                                ----                ----                ----                                                                                                                                                                                                     *
*    IM                                                  ----                ----                ----                                                                                                                                                                                                     *
*    LINKONCE                                            ----                ----                ----                                                                                                                                                                                                     *
*    VTBL                                                ----                ----                ----                                                                                                                                                                                                     *
*    NB_MERGE                                            ----                ----                ----                                                                                                                                                                                                     *
*    RAM_BANK0                                           ----                ----                ----                                                                                                                                                                                                     *
*    IRAM_BANK0                                          ----                ----                ----                                                                                                                                                                                                     *
*    ORAM_BANK0                                          ----                ----                ----                                                                                                                                                                                                     *
* "D:\Prj_GPCE3400\ZMM001A(EN)_MMMMMMM\soft\V46_asV34\Debug\SPI_Flash_CE3.obj"                                                                                                                                                                                                                            *
*    DEBUG                                               ----                ----                ----                                                                                                                                                                                                     *
*    _CODE_SPI_SEC(CODE)                                 204A7A              204AFD              84                                                                                                                                                                                                       *
*    _DATA_SPI_SEC(DATA)                                 ----                ----                ----                                                                                                                                                                                                     *
*    TEXT                                                ----                ----                ----                                                                                                                                                                                                     *
*    IRAM                                                ----                ----                ----                                                                                                                                                                                                     *
*    ISRAM                                               ----                ----                ----                                                                                                                                                                                                     *
*    RAM                                                 5C9                 5CD                 5                                                                                                                                                                                                        *
*    SRAM                                                ----                ----                ----                                                                                                                                                                                                     *
*    ORAM                                                ----                ----                ----                                                                                                                                                                                                     *
*    OSRAM                                               ----                ----                ----                                                                                                                                                                                                     *
*    NB_DATA                                             ----                ----                ----                                                                                                                                                                                                     *
*    CTOR                                                ----                ----                ----                                                                                                                                                                                                     *
*    DTOR                                                ----                ----                ----                                                                                                                                                                                                     *
*    IM                                                  ----                ----                ----                                                                                                                                                                                                     *
*    LINKONCE                                            ----                ----                ----                                                                                                                                                                                                     *
*    VTBL                                                ----                ----                ----                                                                                                                                                                                                     *
*    NB_MERGE                                            ----                ----                ----                                                                                                                                                                                                     *
*    RAM_BANK0                                           ----                ----                ----                                                                                                                                                                                                     *
*    IRAM_BANK0                                          ----                ----                ----                                                                                                                                                                                                     *
*    ORAM_BANK0                                          ----                ----                ----                                                                                                                                                                                                     *
*    SPIFC_RAMCode_SEC(CODE)                             205300(10)          205620(330)         321                                                                                                                                                                                                      *
* "D:\Prj_GPCE3400\ZMM001A(EN)_MMMMMMM\soft\V46_asV34\Debug\CTS_Sensor.obj"                                                                                                                                                                                                                               *
*    DEBUG                                               ----                ----                ----                                                                                                                                                                                                     *
*    _CODE_SPI_IN_FOLDER_SEC_CTS(CODE)                   2037E3              2038F7              115                                                                                                                                                                                                      *
*    _DATA_SPI_IN_FOLDER_SEC_CTS(DATA)                   ----                ----                ----                                                                                                                                                                                                     *
*    TEXT                                                ----                ----                ----                                                                                                                                                                                                     *
*    IRAM                                                ----                ----                ----                                                                                                                                                                                                     *
*    ISRAM                                               ----                ----                ----                                                                                                                                                                                                     *
*    RAM                                                 5CE                 5E6                 19                                                                                                                                                                                                       *
*    SRAM                                                ----                ----                ----                                                                                                                                                                                                     *
*    ORAM                                                ----                ----                ----                                                                                                                                                                                                     *
*    OSRAM                                               ----                ----                ----                                                                                                                                                                                                     *
*    NB_DATA                                             ----                ----                ----                                                                                                                                                                                                     *
*    CTOR                                                ----                ----                ----                                                                                                                                                                                                     *
*    DTOR                                                ----                ----                ----                                                                                                                                                                                                     *
*    IM                                                  ----                ----                ----                                                                                                                                                                                                     *
*    LINKONCE                                            ----                ----                ----                                                                                                                                                                                                     *
*    VTBL                                                ----                ----                ----                                                                                                                                                                                                     *
*    NB_MERGE                                            ----                ----                ----                                                                                                                                                                                                     *
*    RAM_BANK0                                           ----                ----                ----                                                                                                                                                                                                     *
*    IRAM_BANK0                                          ----                ----                ----                                                                                                                                                                                                     *
*    ORAM_BANK0                                          ----                ----                ----                                                                                                                                                                                                     *
* "D:\Prj_GPCE3400\ZMM001A(EN)_MMMMMMM\soft\V46_asV34\Debug\CTS_User.obj"                                                                                                                                                                                                                                 *
*    DEBUG                                               ----                ----                ----                                                                                                                                                                                                     *
*    _CODE_SPI_IN_FOLDER_SEC_CTS(CODE)                   203955              2039A8              54                                                                                                                                                                                                       *
*    _DATA_SPI_IN_FOLDER_SEC_CTS(DATA)                   ----                ----                ----                                                                                                                                                                                                     *
*    TEXT                                                ----                ----                ----                                                                                                                                                                                                     *
*    IRAM                                                2034FB(5EA)         2034FC(5EB)         2                                                                                                                                                                                                        *
*    ISRAM                                               ----                ----                ----                                                                                                                                                                                                     *
*    RAM                                                 ----                ----                ----                                                                                                                                                                                                     *
*    SRAM                                                ----                ----                ----                                                                                                                                                                                                     *
*    ORAM                                                ----                ----                ----                                                                                                                                                                                                     *
*    OSRAM                                               ----                ----                ----                                                                                                                                                                                                     *
*    NB_DATA                                             ----                ----                ----                                                                                                                                                                                                     *
*    CTOR                                                ----                ----                ----                                                                                                                                                                                                     *
*    DTOR                                                ----                ----                ----                                                                                                                                                                                                     *
*    IM                                                  ----                ----                ----                                                                                                                                                                                                     *
*    LINKONCE                                            ----                ----                ----                                                                                                                                                                                                     *
*    VTBL                                                ----                ----                ----                                                                                                                                                                                                     *
*    NB_MERGE                                            ----                ----                ----                                                                                                                                                                                                     *
*    RAM_BANK0                                           ----                ----                ----                                                                                                                                                                                                     *
*    IRAM_BANK0                                          ----                ----                ----                                                                                                                                                                                                     *
*    ORAM_BANK0                                          ----                ----                ----                                                                                                                                                                                                     *
* "D:\Prj_GPCE3400\ZMM001A(EN)_MMMMMMM\soft\V46_asV34\Debug\RomCodeOBJ_GPCE1_CE3.obj"                                                                                                                                                                                                                     *
*    ROMCODE_SPI_Data(CODE)                              201940              2034DA              1B9B                                                                                                                                                                                                     *
* "D:\Prj_GPCE3400\ZMM001A(EN)_MMMMMMM\soft\V46_asV34\Debug\Rom_ZMM_V14_Pro_bin.res"                                                                                                                                                                                                                      *
*    __sn_section_RES_ROM_ZMM_V14_PRO_BIN(DATA)          208342              2CBC53              C3912                                                                                                                                                                                                    *
* "D:\SVN_Local\library\16-bit\HW Capacitive Touch Sensor\Source Code\LibMaker\V1.1.0\CTS_Sensor" "CTS_V1.1.0.lib"
*    DEBUG                                               ----                ----                ----                                                                                                                                                                                                     *
*    CODE                                                203604              2037E2              1DF                                                                                                                                                                                                      *
*    DATA                                                ----                ----                ----                                                                                                                                                                                                     *
*    TEXT                                                ----                ----                ----                                                                                                                                                                                                     *
*    IRAM                                                2034FA(5E9)         2034FA(5E9)         1                                                                                                                                                                                                        *
*    ISRAM                                               ----                ----                ----                                                                                                                                                                                                     *
*    RAM                                                 ----                ----                ----                                                                                                                                                                                                     *
*    SRAM                                                ----                ----                ----                                                                                                                                                                                                     *
*    ORAM                                                ----                ----                ----                                                                                                                                                                                                     *
*    OSRAM                                               ----                ----                ----                                                                                                                                                                                                     *
*    NB_DATA                                             ----                ----                ----                                                                                                                                                                                                     *
*    CTOR                                                ----                ----                ----                                                                                                                                                                                                     *
*    DTOR                                                ----                ----                ----                                                                                                                                                                                                     *
*    IM                                                  ----                ----                ----                                                                                                                                                                                                     *
*    LINKONCE                                            ----                ----                ----                                                                                                                                                                                                     *
*    VTBL                                                ----                ----                ----                                                                                                                                                                                                     *
*    NB_MERGE                                            ----                ----                ----                                                                                                                                                                                                     *
*    RAM_BANK0                                           ----                ----                ----                                                                                                                                                                                                     *
*    IRAM_BANK0                                          ----                ----                ----                                                                                                                                                                                                     *
*    ORAM_BANK0                                          ----                ----                ----                                                                                                                                                                                                     *
*    OVERLAP_CTS_API_RAM(ORAM)                           599                 5AF                 17                                                                                                                                                                                                       *
*    CTS_ISR_Service_ROMBLOCK(CODE)                      201800              201868              69                                                                                                                                                                                                       *
* "modu1" "CMacro1232.lib"                                                                                                                                                                                                                                                                                *
*    DEBUG                                               ----                ----                ----                                                                                                                                                                                                     *
*    CODE                                                2038F8              203954              5D                                                                                                                                                                                                       *
*    DATA                                                ----                ----                ----                                                                                                                                                                                                     *
*    TEXT                                                ----                ----                ----                                                                                                                                                                                                     *
*    IRAM                                                ----                ----                ----                                                                                                                                                                                                     *
*    ISRAM                                               ----                ----                ----                                                                                                                                                                                                     *
*    RAM                                                 ----                ----                ----                                                                                                                                                                                                     *
*    SRAM                                                ----                ----                ----                                                                                                                                                                                                     *
*    ORAM                                                ----                ----                ----                                                                                                                                                                                                     *
*    OSRAM                                               ----                ----                ----                                                                                                                                                                                                     *
*    NB_DATA                                             ----                ----                ----                                                                                                                                                                                                     *
*    CTOR                                                ----                ----                ----                                                                                                                                                                                                     *
*    DTOR                                                ----                ----                ----                                                                                                                                                                                                     *
*    IM                                                  ----                ----                ----                                                                                                                                                                                                     *
*    LINKONCE                                            ----                ----                ----                                                                                                                                                                                                     *
*    VTBL                                                ----                ----                ----                                                                                                                                                                                                     *
*    NB_MERGE                                            ----                ----                ----                                                                                                                                                                                                     *
*    RAM_BANK0                                           ----                ----                ----                                                                                                                                                                                                     *
*    IRAM_BANK0                                          ----                ----                ----                                                                                                                                                                                                     *
*    ORAM_BANK0                                          ----                ----                ----                                                                                                                                                                                                     *
* "__clz16" "CMacro1232.lib"                                                                                                                                                                                                                                                                              *
*    DEBUG                                               ----                ----                ----                                                                                                                                                                                                     *
*    CODE                                                201869              201873              B                                                                                                                                                                                                        *
*    DATA                                                ----                ----                ----                                                                                                                                                                                                     *
*    TEXT                                                ----                ----                ----                                                                                                                                                                                                     *
*    IRAM                                                ----                ----                ----                                                                                                                                                                                                     *
*    ISRAM                                               ----                ----                ----                                                                                                                                                                                                     *
*    RAM                                                 ----                ----                ----                                                                                                                                                                                                     *
*    SRAM                                                ----                ----                ----                                                                                                                                                                                                     *
*    ORAM                                                ----                ----                ----                                                                                                                                                                                                     *
*    OSRAM                                               ----                ----                ----                                                                                                                                                                                                     *
*    NB_DATA                                             ----                ----                ----                                                                                                                                                                                                     *
*    CTOR                                                ----                ----                ----                                                                                                                                                                                                     *
*    DTOR                                                ----                ----                ----                                                                                                                                                                                                     *
*    IM                                                  ----                ----                ----                                                                                                                                                                                                     *
*    LINKONCE                                            ----                ----                ----                                                                                                                                                                                                     *
*    VTBL                                                ----                ----                ----                                                                                                                                                                                                     *
*    NB_MERGE                                            ----                ----                ----                                                                                                                                                                                                     *
*    RAM_BANK0                                           ----                ----                ----                                                                                                                                                                                                     *
*    IRAM_BANK0                                          ----                ----                ----                                                                                                                                                                                                     *
*    ORAM_BANK0                                          ----                ----                ----                                                                                                                                                                                                     *
* "__divi16_n" "CMacro1232.lib"                                                                                                                                                                                                                                                                           *
*    DEBUG                                               ----                ----                ----                                                                                                                                                                                                     *
*    CODE                                                201874              20187D              A                                                                                                                                                                                                        *
*    DATA                                                ----                ----                ----                                                                                                                                                                                                     *
*    TEXT                                                ----                ----                ----                                                                                                                                                                                                     *
*    IRAM                                                ----                ----                ----                                                                                                                                                                                                     *
*    ISRAM                                               ----                ----                ----                                                                                                                                                                                                     *
*    RAM                                                 ----                ----                ----                                                                                                                                                                                                     *
*    SRAM                                                ----                ----                ----                                                                                                                                                                                                     *
*    ORAM                                                ----                ----                ----                                                                                                                                                                                                     *
*    OSRAM                                               ----                ----                ----                                                                                                                                                                                                     *
*    NB_DATA                                             ----                ----                ----                                                                                                                                                                                                     *
*    CTOR                                                ----                ----                ----                                                                                                                                                                                                     *
*    DTOR                                                ----                ----                ----                                                                                                                                                                                                     *
*    IM                                                  ----                ----                ----                                                                                                                                                                                                     *
*    LINKONCE                                            ----                ----                ----                                                                                                                                                                                                     *
*    VTBL                                                ----                ----                ----                                                                                                                                                                                                     *
*    NB_MERGE                                            ----                ----                ----                                                                                                                                                                                                     *
*    RAM_BANK0                                           ----                ----                ----                                                                                                                                                                                                     *
*    IRAM_BANK0                                          ----                ----                ----                                                                                                                                                                                                     *
*    ORAM_BANK0                                          ----                ----                ----                                                                                                                                                                                                     *
* "lshiu1" "CMacro1232.lib"                                                                                                                                                                                                                                                                               *
*    DEBUG                                               ----                ----                ----                                                                                                                                                                                                     *
*    CODE                                                2018F2              2018F9              8                                                                                                                                                                                                        *
*    DATA                                                ----                ----                ----                                                                                                                                                                                                     *
*    TEXT                                                ----                ----                ----                                                                                                                                                                                                     *
*    IRAM                                                ----                ----                ----                                                                                                                                                                                                     *
*    ISRAM                                               ----                ----                ----                                                                                                                                                                                                     *
*    RAM                                                 ----                ----                ----                                                                                                                                                                                                     *
*    SRAM                                                ----                ----                ----                                                                                                                                                                                                     *
*    ORAM                                                ----                ----                ----                                                                                                                                                                                                     *
*    OSRAM                                               ----                ----                ----                                                                                                                                                                                                     *
*    NB_DATA                                             ----                ----                ----                                                                                                                                                                                                     *
*    CTOR                                                ----                ----                ----                                                                                                                                                                                                     *
*    DTOR                                                ----                ----                ----                                                                                                                                                                                                     *
*    IM                                                  ----                ----                ----                                                                                                                                                                                                     *
*    LINKONCE                                            ----                ----                ----                                                                                                                                                                                                     *
*    VTBL                                                ----                ----                ----                                                                                                                                                                                                     *
*    NB_MERGE                                            ----                ----                ----                                                                                                                                                                                                     *
*    RAM_BANK0                                           ----                ----                ----                                                                                                                                                                                                     *
*    IRAM_BANK0                                          ----                ----                ----                                                                                                                                                                                                     *
*    ORAM_BANK0                                          ----                ----                ----                                                                                                                                                                                                     *
* "rshu1" "CMacro1232.lib"                                                                                                                                                                                                                                                                                *
*    DEBUG                                               ----                ----                ----                                                                                                                                                                                                     *
*    CODE                                                2018FA              201901              8                                                                                                                                                                                                        *
*    DATA                                                ----                ----                ----                                                                                                                                                                                                     *
*    TEXT                                                ----                ----                ----                                                                                                                                                                                                     *
*    IRAM                                                ----                ----                ----                                                                                                                                                                                                     *
*    ISRAM                                               ----                ----                ----                                                                                                                                                                                                     *
*    RAM                                                 ----                ----                ----                                                                                                                                                                                                     *
*    SRAM                                                ----                ----                ----                                                                                                                                                                                                     *
*    ORAM                                                ----                ----                ----                                                                                                                                                                                                     *
*    OSRAM                                               ----                ----                ----                                                                                                                                                                                                     *
*    NB_DATA                                             ----                ----                ----                                                                                                                                                                                                     *
*    CTOR                                                ----                ----                ----                                                                                                                                                                                                     *
*    DTOR                                                ----                ----                ----                                                                                                                                                                                                     *
*    IM                                                  ----                ----                ----                                                                                                                                                                                                     *
*    LINKONCE                                            ----                ----                ----                                                                                                                                                                                                     *
*    VTBL                                                ----                ----                ----                                                                                                                                                                                                     *
*    NB_MERGE                                            ----                ----                ----                                                                                                                                                                                                     *
*    RAM_BANK0                                           ----                ----                ----                                                                                                                                                                                                     *
*    IRAM_BANK0                                          ----                ----                ----                                                                                                                                                                                                     *
*    ORAM_BANK0                                          ----                ----                ----                                                                                                                                                                                                     *
* "_GPTag" "CMacro1232.lib"                                                                                                                                                                                                                                                                               *
*    DEBUG                                               ----                ----                ----                                                                                                                                                                                                     *
*    CODE                                                201902              201909              8                                                                                                                                                                                                        *
*    DATA                                                ----                ----                ----                                                                                                                                                                                                     *
*    TEXT                                                ----                ----                ----                                                                                                                                                                                                     *
*    IRAM                                                ----                ----                ----                                                                                                                                                                                                     *
*    ISRAM                                               ----                ----                ----                                                                                                                                                                                                     *
*    RAM                                                 ----                ----                ----                                                                                                                                                                                                     *
*    SRAM                                                ----                ----                ----                                                                                                                                                                                                     *
*    ORAM                                                ----                ----                ----                                                                                                                                                                                                     *
*    OSRAM                                               ----                ----                ----                                                                                                                                                                                                     *
*    NB_DATA                                             ----                ----                ----                                                                                                                                                                                                     *
*    CTOR                                                ----                ----                ----                                                                                                                                                                                                     *
*    DTOR                                                ----                ----                ----                                                                                                                                                                                                     *
*    IM                                                  ----                ----                ----                                                                                                                                                                                                     *
*    LINKONCE                                            ----                ----                ----                                                                                                                                                                                                     *
*    VTBL                                                ----                ----                ----                                                                                                                                                                                                     *
*    NB_MERGE                                            ----                ----                ----                                                                                                                                                                                                     *
*    RAM_BANK0                                           ----                ----                ----                                                                                                                                                                                                     *
*    IRAM_BANK0                                          ----                ----                ----                                                                                                                                                                                                     *
*    ORAM_BANK0                                          ----                ----                ----                                                                                                                                                                                                     *
* "Init Table"                                           2034DB              2034E3              9                                                                                                                                                                                                        *
***********************************************************************************************************************************************************************************************************************************************************************************************************

***********************************************************************************************************************************************************************************************************************************************************************************************************
*                             M E M O R Y     S U M M A R Y                                                                                                                                                                                                                                               *
***********************************************************************************************************************************************************************************************************************************************************************************************************
*     Type                          Total               Using        Remain                                                                                                                                                                                                                               *
***********************************************************************************************************************************************************************************************************************************************************************************************************
* "SRam/OSRam/ISRam"                40                   30           10                                                                                                                                                                                                                                  *
* "Ram"                             BF0                  6E3          50D                                                                                                                                                                                                                                 *
* "First Bank Rom"                  0                    0            0                                                                                                                                                                                                                                   *
* "Other Banks Rom"                 FFE800               C958F        F35271                                                                                                                                                                                                                              *
***********************************************************************************************************************************************************************************************************************************************************************************************************

Linker Output Filename : D:\Prj_GPCE3400\ZMM001A(EN)_MMMMMMM\soft\V46_asV34\Debug\GPCE3400A_Demo.TSK
Disk  Mapping Filename : D:\Prj_GPCE3400\ZMM001A(EN)_MMMMMMM\soft\V46_asV34\Debug\GPCE3400A_Demo.map
Symbol  Table FileName : D:\Prj_GPCE3400\ZMM001A(EN)_MMMMMMM\soft\V46_asV34\Debug\GPCE3400A_Demo.sym
Format :                 Microtek

Linker Errors :          0
Output Format :          TSK
Max Used Address :       0x2CBC53
